Component: Arm Compiler for Embedded 6.21 Tool: armlink [5ec1fa00]

==============================================================================

Section Cross References

    main.o(.text.main) refers to ti_msp_dl_config.o(.text.SYSCFG_DL_init) for SYSCFG_DL_init
    main.o(.text.main) refers to eeprom_emulation_type_a.o(.text.EEPROM_TypeA_init) for EEPROM_TypeA_init
    main.o(.text.main) refers to keyboard.o(.text.Keyboard_init) for Keyboard_init
    main.o(.text.main) refers to oled.o(.text.OLED_Init) for OLED_Init
    main.o(.text.main) refers to pwm.o(.text.PWM_init) for PWM_init
    main.o(.text.main) refers to musicplayer.o(.text.MusicPlayer_init) for MusicPlayer_init
    main.o(.text.main) refers to uart.o(.text.UART_init) for UART_init
    main.o(.text.main) refers to mpu6500_spi.o(.text.MPU6500_Init) for MPU6500_Init
    main.o(.text.main) refers to oled.o(.text.OLED_DrawBMP) for OLED_DrawBMP
    main.o(.text.main) refers to dl_common.o(.text.DL_Common_delayCycles) for DL_Common_delayCycles
    main.o(.text.main) refers to oled.o(.text.OLED_Clear) for OLED_Clear
    main.o(.text.main) refers to pid.o(.text.Set_PID) for Set_PID
    main.o(.text.main) refers to pid.o(.text.Set_PID_Limit) for Set_PID_Limit
    main.o(.text.main) refers to keyboard.o(.text.KeySCInput) for KeySCInput
    main.o(.text.main) refers to oled.o(.text.OLED_ShowNum) for OLED_ShowNum
    main.o(.text.main) refers to mpu6500_spi.o(.text.MPU6500_getData) for MPU6500_getData
    main.o(.text.main) refers to pwm.o(.text.SetLeftMotor) for SetLeftMotor
    main.o(.text.main) refers to pwm.o(.text.SetRightMotor) for SetRightMotor
    main.o(.text.main) refers to mpu6500_spi.o(.text.MPU6500_Calibration) for MPU6500_Calibration
    main.o(.text.main) refers to oled.o(.text.OLED_ShowString) for OLED_ShowString
    main.o(.text.main) refers to main.o(.bss.EEPROMEmulationBuffer) for EEPROMEmulationBuffer
    main.o(.text.main) refers to main.o(.bss.EEPROMEmulationState) for EEPROMEmulationState
    main.o(.text.main) refers to main.o(.rodata.Genshin) for Genshin
    main.o(.text.main) refers to main.o(.bss.RMOTOR) for RMOTOR
    main.o(.text.main) refers to main.o(.bss.LMOTOR) for LMOTOR
    main.o(.text.main) refers to main.o(.bss.servo) for servo
    main.o(.text.main) refers to main.o(.bss.left) for left
    main.o(.text.main) refers to main.o(.bss.right) for right
    main.o(.text.main) refers to main.o(.bss.key_value) for key_value
    main.o(.text.main) refers to main.o(.bss.nowV) for nowV
    main.o(.text.main) refers to main.o(.bss.sdk_choose) for sdk_choose
    main.o(.text.main) refers to main.o(.bss.right_speed_set) for right_speed_set
    main.o(.text.main) refers to main.o(.bss.left_speed_set) for left_speed_set
    main.o(.ARM.exidx.text.main) refers to main.o(.text.main) for [Anonymous Symbol]
    main.o(.text.SaveData) refers to eeprom_emulation_type_a.o(.text.EEPROM_TypeA_eraseLastSector) for EEPROM_TypeA_eraseLastSector
    main.o(.text.SaveData) refers to eeprom_emulation_type_a.o(.text.EEPROM_TypeA_writeData) for EEPROM_TypeA_writeData
    main.o(.text.SaveData) refers to eeprom_emulation_type_a.o(.bss.gEEPROMTypeAEraseFlag) for gEEPROMTypeAEraseFlag
    main.o(.text.SaveData) refers to main.o(.bss.EEPROMEmulationBuffer) for EEPROMEmulationBuffer
    main.o(.ARM.exidx.text.SaveData) refers to main.o(.text.SaveData) for [Anonymous Symbol]
    main.o(.text.LoadData) refers to eeprom_emulation_type_a.o(.text.EEPROM_TypeA_readData) for EEPROM_TypeA_readData
    main.o(.text.LoadData) refers to main.o(.bss.EEPROMEmulationBuffer) for EEPROMEmulationBuffer
    main.o(.ARM.exidx.text.LoadData) refers to main.o(.text.LoadData) for [Anonymous Symbol]
    main.o(.ARM.exidx.text.constrain) refers to main.o(.text.constrain) for [Anonymous Symbol]
    main.o(.text.UART1_IRQHandler) refers to oled.o(.text.OLED_ShowChar) for OLED_ShowChar
    main.o(.text.UART1_IRQHandler) refers to oled.o(.text.OLED_ShowNum) for OLED_ShowNum
    main.o(.text.UART1_IRQHandler) refers to main.o(.bss.gray_read_get) for gray_read_get
    main.o(.text.UART1_IRQHandler) refers to main.o(.bss.receivingFrame) for receivingFrame
    main.o(.ARM.exidx.text.UART1_IRQHandler) refers to main.o(.text.UART1_IRQHandler) for [Anonymous Symbol]
    main.o(.text.GROUP1_IRQHandler) refers to main.o(.bss.left_cnt) for left_cnt
    main.o(.text.GROUP1_IRQHandler) refers to main.o(.bss.right_cnt) for right_cnt
    main.o(.ARM.exidx.text.GROUP1_IRQHandler) refers to main.o(.text.GROUP1_IRQHandler) for [Anonymous Symbol]
    main.o(.text.TIMG0_IRQHandler) refers to main.o(.text.get_speed) for get_speed
    main.o(.text.TIMG0_IRQHandler) refers to main.o(.text.set_speed) for set_speed
    main.o(.text.TIMG0_IRQHandler) refers to main.o(.text.sdk_run) for sdk_run
    main.o(.text.TIMG0_IRQHandler) refers to oled.o(.text.OLED_ShowNum) for OLED_ShowNum
    main.o(.text.TIMG0_IRQHandler) refers to ffixui.o(.text) for __aeabi_f2uiz
    main.o(.text.TIMG0_IRQHandler) refers to main.o(.bss.sdk_choose) for sdk_choose
    main.o(.text.TIMG0_IRQHandler) refers to main.o(.bss.left_speed_set) for left_speed_set
    main.o(.ARM.exidx.text.TIMG0_IRQHandler) refers to main.o(.text.TIMG0_IRQHandler) for [Anonymous Symbol]
    main.o(.text.TIMG6_IRQHandler) refers to main.o(.bss.gray_read_get) for gray_read_get
    main.o(.text.TIMG6_IRQHandler) refers to main.o(.bss.gray_status) for gray_status
    main.o(.ARM.exidx.text.TIMG6_IRQHandler) refers to main.o(.text.TIMG6_IRQHandler) for [Anonymous Symbol]
    main.o(.text.go_straight) refers to pid.o(.text.PID_Cal_Inc) for PID_Cal_Inc
    main.o(.text.go_straight) refers to main.o(.bss.left_speed_get) for left_speed_get
    main.o(.text.go_straight) refers to main.o(.bss.left) for left
    main.o(.text.go_straight) refers to main.o(.bss.left_speed_set) for left_speed_set
    main.o(.text.go_straight) refers to main.o(.bss.right_speed_get) for right_speed_get
    main.o(.text.go_straight) refers to main.o(.bss.right) for right
    main.o(.text.go_straight) refers to main.o(.bss.right_speed_set) for right_speed_set
    main.o(.ARM.exidx.text.go_straight) refers to main.o(.text.go_straight) for [Anonymous Symbol]
    main.o(.text.go_line) refers to fflti.o(.text) for __aeabi_i2f
    main.o(.text.go_line) refers to pid.o(.text.PID_Cal_Pos) for PID_Cal_Pos
    main.o(.text.go_line) refers to ffixi.o(.text) for __aeabi_f2iz
    main.o(.text.go_line) refers to dflti.o(.text) for __aeabi_i2d
    main.o(.text.go_line) refers to dmul.o(.text) for __aeabi_dmul
    main.o(.text.go_line) refers to daddsub.o(.text) for __aeabi_dadd
    main.o(.text.go_line) refers to dfixi.o(.text) for __aeabi_d2iz
    main.o(.text.go_line) refers to main.o(.bss.turn_output) for turn_output
    main.o(.text.go_line) refers to main.o(.bss.turn_output_last) for turn_output_last
    main.o(.text.go_line) refers to main.o(.bss.gray_status) for gray_status
    main.o(.text.go_line) refers to main.o(.bss.servo) for servo
    main.o(.ARM.exidx.text.go_line) refers to main.o(.text.go_line) for [Anonymous Symbol]
    main.o(.ARM.exidx.text.turn_little_right) refers to main.o(.text.turn_little_right) for [Anonymous Symbol]
    main.o(.ARM.exidx.text.turn_little_left) refers to main.o(.text.turn_little_left) for [Anonymous Symbol]
    main.o(.ARM.exidx.text.go_keep_turn) refers to main.o(.text.go_keep_turn) for [Anonymous Symbol]
    main.o(.text.stop_run) refers to main.o(.bss.right_speed_set) for right_speed_set
    main.o(.text.stop_run) refers to main.o(.bss.left_speed_set) for left_speed_set
    main.o(.ARM.exidx.text.stop_run) refers to main.o(.text.stop_run) for [Anonymous Symbol]
    main.o(.text.subtask1) refers to pid.o(.text.PID_Cal_Inc) for PID_Cal_Inc
    main.o(.text.subtask1) refers to main.o(.bss.subtask1.stage) for [Anonymous Symbol]
    main.o(.text.subtask1) refers to main.o(.bss.left_speed_get) for left_speed_get
    main.o(.text.subtask1) refers to main.o(.bss.left) for left
    main.o(.text.subtask1) refers to main.o(.bss.left_speed_set) for left_speed_set
    main.o(.text.subtask1) refers to main.o(.bss.right_speed_get) for right_speed_get
    main.o(.text.subtask1) refers to main.o(.bss.right) for right
    main.o(.text.subtask1) refers to main.o(.bss.right_speed_set) for right_speed_set
    main.o(.text.subtask1) refers to main.o(.bss.gray_read_get) for gray_read_get
    main.o(.ARM.exidx.text.subtask1) refers to main.o(.text.subtask1) for [Anonymous Symbol]
    main.o(.text.subtask2) refers to pid.o(.text.PID_Cal_Inc) for PID_Cal_Inc
    main.o(.text.subtask2) refers to fflti.o(.text) for __aeabi_i2f
    main.o(.text.subtask2) refers to pid.o(.text.PID_Cal_Pos) for PID_Cal_Pos
    main.o(.text.subtask2) refers to ffixi.o(.text) for __aeabi_f2iz
    main.o(.text.subtask2) refers to dflti.o(.text) for __aeabi_i2d
    main.o(.text.subtask2) refers to dmul.o(.text) for __aeabi_dmul
    main.o(.text.subtask2) refers to daddsub.o(.text) for __aeabi_dadd
    main.o(.text.subtask2) refers to dfixi.o(.text) for __aeabi_d2iz
    main.o(.text.subtask2) refers to main.o(.bss.subtask2.stage) for [Anonymous Symbol]
    main.o(.text.subtask2) refers to main.o(.bss.left_speed_get) for left_speed_get
    main.o(.text.subtask2) refers to main.o(.bss.left) for left
    main.o(.text.subtask2) refers to main.o(.bss.left_speed_set) for left_speed_set
    main.o(.text.subtask2) refers to main.o(.bss.right_speed_get) for right_speed_get
    main.o(.text.subtask2) refers to main.o(.bss.right) for right
    main.o(.text.subtask2) refers to main.o(.bss.right_speed_set) for right_speed_set
    main.o(.text.subtask2) refers to main.o(.bss.gray_read_get) for gray_read_get
    main.o(.text.subtask2) refers to main.o(.bss.turn_output) for turn_output
    main.o(.text.subtask2) refers to main.o(.bss.turn_output_last) for turn_output_last
    main.o(.text.subtask2) refers to main.o(.bss.gray_status) for gray_status
    main.o(.text.subtask2) refers to main.o(.bss.servo) for servo
    main.o(.ARM.exidx.text.subtask2) refers to main.o(.text.subtask2) for [Anonymous Symbol]
    main.o(.text.subtask3) refers to pid.o(.text.PID_Cal_Inc) for PID_Cal_Inc
    main.o(.text.subtask3) refers to fflti.o(.text) for __aeabi_i2f
    main.o(.text.subtask3) refers to pid.o(.text.PID_Cal_Pos) for PID_Cal_Pos
    main.o(.text.subtask3) refers to ffixi.o(.text) for __aeabi_f2iz
    main.o(.text.subtask3) refers to dflti.o(.text) for __aeabi_i2d
    main.o(.text.subtask3) refers to dmul.o(.text) for __aeabi_dmul
    main.o(.text.subtask3) refers to daddsub.o(.text) for __aeabi_dadd
    main.o(.text.subtask3) refers to dfixi.o(.text) for __aeabi_d2iz
    main.o(.text.subtask3) refers to main.o(.bss.subtask3.stage) for [Anonymous Symbol]
    main.o(.text.subtask3) refers to main.o(.bss.left_speed_get) for left_speed_get
    main.o(.text.subtask3) refers to main.o(.bss.left) for left
    main.o(.text.subtask3) refers to main.o(.bss.left_speed_set) for left_speed_set
    main.o(.text.subtask3) refers to main.o(.bss.right_speed_get) for right_speed_get
    main.o(.text.subtask3) refers to main.o(.bss.right) for right
    main.o(.text.subtask3) refers to main.o(.bss.right_speed_set) for right_speed_set
    main.o(.text.subtask3) refers to main.o(.bss.gray_read_get) for gray_read_get
    main.o(.text.subtask3) refers to main.o(.bss.turn_output) for turn_output
    main.o(.text.subtask3) refers to main.o(.bss.turn_output_last) for turn_output_last
    main.o(.text.subtask3) refers to main.o(.bss.gray_status) for gray_status
    main.o(.text.subtask3) refers to main.o(.bss.servo) for servo
    main.o(.ARM.exidx.text.subtask3) refers to main.o(.text.subtask3) for [Anonymous Symbol]
    main.o(.text.subtask4) refers to pid.o(.text.PID_Cal_Inc) for PID_Cal_Inc
    main.o(.text.subtask4) refers to main.o(.bss.left_speed_get) for left_speed_get
    main.o(.text.subtask4) refers to main.o(.bss.left) for left
    main.o(.text.subtask4) refers to main.o(.bss.left_speed_set) for left_speed_set
    main.o(.text.subtask4) refers to main.o(.bss.right_speed_get) for right_speed_get
    main.o(.text.subtask4) refers to main.o(.bss.right) for right
    main.o(.text.subtask4) refers to main.o(.bss.right_speed_set) for right_speed_set
    main.o(.ARM.exidx.text.subtask4) refers to main.o(.text.subtask4) for [Anonymous Symbol]
    main.o(.text.sdk_run) refers to pid.o(.text.PID_Cal_Inc) for PID_Cal_Inc
    main.o(.text.sdk_run) refers to main.o(.text.subtask2) for subtask2
    main.o(.text.sdk_run) refers to main.o(.text.subtask3) for subtask3
    main.o(.text.sdk_run) refers to main.o(.bss.sdk_choose) for sdk_choose
    main.o(.text.sdk_run) refers to main.o(.bss.left_speed_get) for left_speed_get
    main.o(.text.sdk_run) refers to main.o(.bss.left) for left
    main.o(.text.sdk_run) refers to main.o(.bss.left_speed_set) for left_speed_set
    main.o(.text.sdk_run) refers to main.o(.bss.right_speed_get) for right_speed_get
    main.o(.text.sdk_run) refers to main.o(.bss.right) for right
    main.o(.text.sdk_run) refers to main.o(.bss.right_speed_set) for right_speed_set
    main.o(.text.sdk_run) refers to main.o(.bss.subtask1.stage) for [Anonymous Symbol]
    main.o(.text.sdk_run) refers to main.o(.bss.gray_read_get) for gray_read_get
    main.o(.ARM.exidx.text.sdk_run) refers to main.o(.text.sdk_run) for [Anonymous Symbol]
    main.o(.text.get_speed) refers to fflti.o(.text) for __aeabi_i2f
    main.o(.text.get_speed) refers to fdiv.o(.text) for __aeabi_fdiv
    main.o(.text.get_speed) refers to faddsub.o(x$fpl$fadd) for __aeabi_fadd
    main.o(.text.get_speed) refers to f2d.o(.text) for __aeabi_f2d
    main.o(.text.get_speed) refers to dmul.o(.text) for __aeabi_dmul
    main.o(.text.get_speed) refers to ddiv.o(.text) for __aeabi_ddiv
    main.o(.text.get_speed) refers to d2f.o(.text) for __aeabi_d2f
    main.o(.text.get_speed) refers to main.o(.bss.left_cnt) for left_cnt
    main.o(.text.get_speed) refers to main.o(.bss.left_speed_get) for left_speed_get
    main.o(.text.get_speed) refers to main.o(.bss.right_cnt) for right_cnt
    main.o(.text.get_speed) refers to main.o(.bss.right_speed_get) for right_speed_get
    main.o(.ARM.exidx.text.get_speed) refers to main.o(.text.get_speed) for [Anonymous Symbol]
    main.o(.ARM.exidx.text.get_imu) refers to main.o(.text.get_imu) for [Anonymous Symbol]
    main.o(.text.set_speed) refers to faddsub.o(x$fpl$fsub) for __aeabi_fsub
    main.o(.text.set_speed) refers to ffixi.o(.text) for __aeabi_f2iz
    main.o(.text.set_speed) refers to pwm.o(.text.SetLeftMotor) for SetLeftMotor
    main.o(.text.set_speed) refers to pwm.o(.text.SetRightMotor) for SetRightMotor
    main.o(.text.set_speed) refers to pwm.o(.text.SetServo) for SetServo
    main.o(.text.set_speed) refers to main.o(.bss.left_speed_set) for left_speed_set
    main.o(.text.set_speed) refers to main.o(.bss.right_speed_set) for right_speed_set
    main.o(.text.set_speed) refers to main.o(.bss.turn_output) for turn_output
    main.o(.ARM.exidx.text.set_speed) refers to main.o(.text.set_speed) for [Anonymous Symbol]
    oled.o(.ARM.exidx.text.delay_ms) refers to oled.o(.text.delay_ms) for [Anonymous Symbol]
    oled.o(.ARM.exidx.text.OLED_WR_Byte) refers to oled.o(.text.OLED_WR_Byte) for [Anonymous Symbol]
    oled.o(.text.OLED_Set_Pos) refers to oled.o(.text.OLED_WR_Byte) for OLED_WR_Byte
    oled.o(.ARM.exidx.text.OLED_Set_Pos) refers to oled.o(.text.OLED_Set_Pos) for [Anonymous Symbol]
    oled.o(.ARM.exidx.text.OLED_Display_On) refers to oled.o(.text.OLED_Display_On) for [Anonymous Symbol]
    oled.o(.ARM.exidx.text.OLED_Display_Off) refers to oled.o(.text.OLED_Display_Off) for [Anonymous Symbol]
    oled.o(.text.OLED_Clear) refers to oled.o(.text.OLED_WR_Byte) for OLED_WR_Byte
    oled.o(.ARM.exidx.text.OLED_Clear) refers to oled.o(.text.OLED_Clear) for [Anonymous Symbol]
    oled.o(.text.OLED_ShowChar) refers to oled.o(.text.OLED_WR_Byte) for OLED_WR_Byte
    oled.o(.text.OLED_ShowChar) refers to oled.o(.rodata.F8X16) for F8X16
    oled.o(.ARM.exidx.text.OLED_ShowChar) refers to oled.o(.text.OLED_ShowChar) for [Anonymous Symbol]
    oled.o(.ARM.exidx.text.oled_pow) refers to oled.o(.text.oled_pow) for [Anonymous Symbol]
    oled.o(.text.OLED_ShowNum) refers to oled.o(.text.OLED_ShowChar) for OLED_ShowChar
    oled.o(.text.OLED_ShowNum) refers to aeabi_sdivfast.o(.text_divfast) for __aeabi_uidiv
    oled.o(.text.OLED_ShowNum) refers to aeabi_sdivfast.o(.text) for __aeabi_uidivmod
    oled.o(.ARM.exidx.text.OLED_ShowNum) refers to oled.o(.text.OLED_ShowNum) for [Anonymous Symbol]
    oled.o(.text.OLED_ShowSignedNum) refers to oled.o(.text.OLED_ShowChar) for OLED_ShowChar
    oled.o(.text.OLED_ShowSignedNum) refers to aeabi_sdivfast.o(.text_divfast) for __aeabi_uidiv
    oled.o(.text.OLED_ShowSignedNum) refers to aeabi_sdivfast.o(.text) for __aeabi_uidivmod
    oled.o(.ARM.exidx.text.OLED_ShowSignedNum) refers to oled.o(.text.OLED_ShowSignedNum) for [Anonymous Symbol]
    oled.o(.text.OLED_ShowString) refers to oled.o(.text.OLED_ShowChar) for OLED_ShowChar
    oled.o(.ARM.exidx.text.OLED_ShowString) refers to oled.o(.text.OLED_ShowString) for [Anonymous Symbol]
    oled.o(.text.OLED_ShowCHinese) refers to oled.o(.text.OLED_WR_Byte) for OLED_WR_Byte
    oled.o(.text.OLED_ShowCHinese) refers to oled.o(.rodata.Hzk) for Hzk
    oled.o(.ARM.exidx.text.OLED_ShowCHinese) refers to oled.o(.text.OLED_ShowCHinese) for [Anonymous Symbol]
    oled.o(.text.OLED_DrawBMP) refers to oled.o(.text.OLED_WR_Byte) for OLED_WR_Byte
    oled.o(.ARM.exidx.text.OLED_DrawBMP) refers to oled.o(.text.OLED_DrawBMP) for [Anonymous Symbol]
    oled.o(.text.OLED_Init) refers to oled.o(.text.OLED_Clear) for OLED_Clear
    oled.o(.ARM.exidx.text.OLED_Init) refers to oled.o(.text.OLED_Init) for [Anonymous Symbol]
    keyboard.o(.ARM.exidx.text.Keyboard_init) refers to keyboard.o(.text.Keyboard_init) for [Anonymous Symbol]
    keyboard.o(.text.KeySCInput) refers to dl_common.o(.text.DL_Common_delayCycles) for DL_Common_delayCycles
    keyboard.o(.ARM.exidx.text.KeySCInput) refers to keyboard.o(.text.KeySCInput) for [Anonymous Symbol]
    pwm.o(.text.PWM_init) refers to dl_timer.o(.text.DL_Timer_setCaptureCompareValue) for DL_Timer_setCaptureCompareValue
    pwm.o(.ARM.exidx.text.PWM_init) refers to pwm.o(.text.PWM_init) for [Anonymous Symbol]
    pwm.o(.text.SetLeftMotor) refers to dl_timer.o(.text.DL_Timer_setCaptureCompareValue) for DL_Timer_setCaptureCompareValue
    pwm.o(.ARM.exidx.text.SetLeftMotor) refers to pwm.o(.text.SetLeftMotor) for [Anonymous Symbol]
    pwm.o(.text.SetRightMotor) refers to dl_timer.o(.text.DL_Timer_setCaptureCompareValue) for DL_Timer_setCaptureCompareValue
    pwm.o(.ARM.exidx.text.SetRightMotor) refers to pwm.o(.text.SetRightMotor) for [Anonymous Symbol]
    pwm.o(.text.SetServo) refers to dl_timer.o(.text.DL_Timer_setCaptureCompareValue) for DL_Timer_setCaptureCompareValue
    pwm.o(.ARM.exidx.text.SetServo) refers to pwm.o(.text.SetServo) for [Anonymous Symbol]
    pwm.o(.text.pwm_set_freq) refers to aeabi_sdivfast.o(.text_divfast) for __aeabi_uidiv
    pwm.o(.text.pwm_set_freq) refers to dl_timer.o(.text.DL_Timer_setCaptureCompareValue) for DL_Timer_setCaptureCompareValue
    pwm.o(.ARM.exidx.text.pwm_set_freq) refers to pwm.o(.text.pwm_set_freq) for [Anonymous Symbol]
    pwm.o(.text.pwm_set_duty) refers to aeabi_sdivfast.o(.text_divfast) for __aeabi_uidiv
    pwm.o(.text.pwm_set_duty) refers to dl_timer.o(.text.DL_Timer_setCaptureCompareValue) for DL_Timer_setCaptureCompareValue
    pwm.o(.ARM.exidx.text.pwm_set_duty) refers to pwm.o(.text.pwm_set_duty) for [Anonymous Symbol]
    musicplayer.o(.text.MusicPlayer_init) refers to dl_timer.o(.text.DL_Timer_setCaptureCompareValue) for DL_Timer_setCaptureCompareValue
    musicplayer.o(.text.MusicPlayer_init) refers to dl_common.o(.text.DL_Common_delayCycles) for DL_Common_delayCycles
    musicplayer.o(.ARM.exidx.text.MusicPlayer_init) refers to musicplayer.o(.text.MusicPlayer_init) for [Anonymous Symbol]
    musicplayer.o(.text.BuzzON) refers to dl_timer.o(.text.DL_Timer_setCaptureCompareValue) for DL_Timer_setCaptureCompareValue
    musicplayer.o(.text.BuzzON) refers to dl_common.o(.text.DL_Common_delayCycles) for DL_Common_delayCycles
    musicplayer.o(.ARM.exidx.text.BuzzON) refers to musicplayer.o(.text.BuzzON) for [Anonymous Symbol]
    musicplayer.o(.text.BuzzOFF) refers to dl_timer.o(.text.DL_Timer_setCaptureCompareValue) for DL_Timer_setCaptureCompareValue
    musicplayer.o(.text.BuzzOFF) refers to dl_common.o(.text.DL_Common_delayCycles) for DL_Common_delayCycles
    musicplayer.o(.ARM.exidx.text.BuzzOFF) refers to musicplayer.o(.text.BuzzOFF) for [Anonymous Symbol]
    musicplayer.o(.text.playMusic) refers to dl_common.o(.text.DL_Common_delayCycles) for DL_Common_delayCycles
    musicplayer.o(.text.playMusic) refers to dl_timer.o(.text.DL_Timer_setCaptureCompareValue) for DL_Timer_setCaptureCompareValue
    musicplayer.o(.ARM.exidx.text.playMusic) refers to musicplayer.o(.text.playMusic) for [Anonymous Symbol]
    musicplayer.o(.text.playSpScoreNote) refers to dl_common.o(.text.DL_Common_delayCycles) for DL_Common_delayCycles
    musicplayer.o(.text.playSpScoreNote) refers to dl_timer.o(.text.DL_Timer_setCaptureCompareValue) for DL_Timer_setCaptureCompareValue
    musicplayer.o(.ARM.exidx.text.playSpScoreNote) refers to musicplayer.o(.text.playSpScoreNote) for [Anonymous Symbol]
    eeprom_emulation_type_a.o(.text.EEPROM_TypeA_writeData) refers to dl_flashctl.o(.text.DL_FlashCTL_unprotectSector) for DL_FlashCTL_unprotectSector
    eeprom_emulation_type_a.o(.text.EEPROM_TypeA_writeData) refers to dl_flashctl.o(.text.DL_FlashCTL_programMemoryFromRAM64) for DL_FlashCTL_programMemoryFromRAM64
    eeprom_emulation_type_a.o(.text.EEPROM_TypeA_writeData) refers to dl_flashctl.o(.text.DL_FlashCTL_programMemoryFromRAM) for DL_FlashCTL_programMemoryFromRAM
    eeprom_emulation_type_a.o(.text.EEPROM_TypeA_writeData) refers to eeprom_emulation_type_a.o(.data.gNextRecordAddress) for gNextRecordAddress
    eeprom_emulation_type_a.o(.text.EEPROM_TypeA_writeData) refers to eeprom_emulation_type_a.o(.bss.gActiveRecordNum) for gActiveRecordNum
    eeprom_emulation_type_a.o(.text.EEPROM_TypeA_writeData) refers to eeprom_emulation_type_a.o(.bss.gEEPROMTypeAEraseFlag) for gEEPROMTypeAEraseFlag
    eeprom_emulation_type_a.o(.text.EEPROM_TypeA_writeData) refers to eeprom_emulation_type_a.o(.data.gActiveSectorNum) for gActiveSectorNum
    eeprom_emulation_type_a.o(.text.EEPROM_TypeA_writeData) refers to eeprom_emulation_type_a.o(.bss.gEEPROMTypeASearchFlag) for gEEPROMTypeASearchFlag
    eeprom_emulation_type_a.o(.text.EEPROM_TypeA_writeData) refers to eeprom_emulation_type_a.o(.data.gActiveRecordAddress) for gActiveRecordAddress
    eeprom_emulation_type_a.o(.ARM.exidx.text.EEPROM_TypeA_writeData) refers to eeprom_emulation_type_a.o(.text.EEPROM_TypeA_writeData) for [Anonymous Symbol]
    eeprom_emulation_type_a.o(.text.EEPROM_TypeA_init) refers to eeprom_emulation_type_a.o(.text.EEPROM_TypeA_searchCheck) for EEPROM_TypeA_searchCheck
    eeprom_emulation_type_a.o(.text.EEPROM_TypeA_init) refers to eeprom_emulation_type_a.o(.text.EEPROM_TypeA_repairFormat) for EEPROM_TypeA_repairFormat
    eeprom_emulation_type_a.o(.text.EEPROM_TypeA_init) refers to dl_flashctl.o(.text.DL_FlashCTL_unprotectSector) for DL_FlashCTL_unprotectSector
    eeprom_emulation_type_a.o(.text.EEPROM_TypeA_init) refers to dl_flashctl.o(.text.DL_FlashCTL_eraseMemoryFromRAM) for DL_FlashCTL_eraseMemoryFromRAM
    eeprom_emulation_type_a.o(.text.EEPROM_TypeA_init) refers to eeprom_emulation_type_a.o(.bss.gEEPROMTypeASearchFlag) for gEEPROMTypeASearchFlag
    eeprom_emulation_type_a.o(.text.EEPROM_TypeA_init) refers to eeprom_emulation_type_a.o(.data.gActiveRecordAddress) for gActiveRecordAddress
    eeprom_emulation_type_a.o(.text.EEPROM_TypeA_init) refers to eeprom_emulation_type_a.o(.bss.gEEPROMTypeAFormatErrorFlag) for gEEPROMTypeAFormatErrorFlag
    eeprom_emulation_type_a.o(.text.EEPROM_TypeA_init) refers to eeprom_emulation_type_a.o(.data.gActiveSectorNum) for gActiveSectorNum
    eeprom_emulation_type_a.o(.text.EEPROM_TypeA_init) refers to eeprom_emulation_type_a.o(.data.gNextRecordAddress) for gNextRecordAddress
    eeprom_emulation_type_a.o(.text.EEPROM_TypeA_init) refers to eeprom_emulation_type_a.o(.bss.gActiveRecordNum) for gActiveRecordNum
    eeprom_emulation_type_a.o(.ARM.exidx.text.EEPROM_TypeA_init) refers to eeprom_emulation_type_a.o(.text.EEPROM_TypeA_init) for [Anonymous Symbol]
    eeprom_emulation_type_a.o(.text.EEPROM_TypeA_searchCheck) refers to eeprom_emulation_type_a.o(.bss.gEEPROMTypeAFormatErrorFlag) for gEEPROMTypeAFormatErrorFlag
    eeprom_emulation_type_a.o(.text.EEPROM_TypeA_searchCheck) refers to eeprom_emulation_type_a.o(.bss.gEEPROMTypeASearchFlag) for gEEPROMTypeASearchFlag
    eeprom_emulation_type_a.o(.text.EEPROM_TypeA_searchCheck) refers to eeprom_emulation_type_a.o(.data.gActiveSectorNum) for gActiveSectorNum
    eeprom_emulation_type_a.o(.text.EEPROM_TypeA_searchCheck) refers to eeprom_emulation_type_a.o(.bss.gActiveRecordNum) for gActiveRecordNum
    eeprom_emulation_type_a.o(.text.EEPROM_TypeA_searchCheck) refers to eeprom_emulation_type_a.o(.data.gActiveRecordAddress) for gActiveRecordAddress
    eeprom_emulation_type_a.o(.text.EEPROM_TypeA_searchCheck) refers to eeprom_emulation_type_a.o(.data.gNextRecordAddress) for gNextRecordAddress
    eeprom_emulation_type_a.o(.ARM.exidx.text.EEPROM_TypeA_searchCheck) refers to eeprom_emulation_type_a.o(.text.EEPROM_TypeA_searchCheck) for [Anonymous Symbol]
    eeprom_emulation_type_a.o(.text.EEPROM_TypeA_readData) refers to eeprom_emulation_type_a.o(.data.gActiveRecordAddress) for gActiveRecordAddress
    eeprom_emulation_type_a.o(.ARM.exidx.text.EEPROM_TypeA_readData) refers to eeprom_emulation_type_a.o(.text.EEPROM_TypeA_readData) for [Anonymous Symbol]
    eeprom_emulation_type_a.o(.text.EEPROM_TypeA_repairFormat) refers to dl_flashctl.o(.text.DL_FlashCTL_unprotectSector) for DL_FlashCTL_unprotectSector
    eeprom_emulation_type_a.o(.text.EEPROM_TypeA_repairFormat) refers to dl_flashctl.o(.text.DL_FlashCTL_eraseMemoryFromRAM) for DL_FlashCTL_eraseMemoryFromRAM
    eeprom_emulation_type_a.o(.text.EEPROM_TypeA_repairFormat) refers to dl_flashctl.o(.text.DL_FlashCTL_programMemoryFromRAM64WithECCGenerated) for DL_FlashCTL_programMemoryFromRAM64WithECCGenerated
    eeprom_emulation_type_a.o(.text.EEPROM_TypeA_repairFormat) refers to dl_flashctl.o(.text.DL_FlashCTL_programMemoryBlockingFromRAM64WithECCGenerated) for DL_FlashCTL_programMemoryBlockingFromRAM64WithECCGenerated
    eeprom_emulation_type_a.o(.text.EEPROM_TypeA_repairFormat) refers to dl_flashctl.o(.text.DL_FlashCTL_programMemoryFromRAM64) for DL_FlashCTL_programMemoryFromRAM64
    eeprom_emulation_type_a.o(.text.EEPROM_TypeA_repairFormat) refers to eeprom_emulation_type_a.o(.data.gActiveSectorNum) for gActiveSectorNum
    eeprom_emulation_type_a.o(.text.EEPROM_TypeA_repairFormat) refers to eeprom_emulation_type_a.o(.bss.gActiveRecordNum) for gActiveRecordNum
    eeprom_emulation_type_a.o(.text.EEPROM_TypeA_repairFormat) refers to eeprom_emulation_type_a.o(.data.gActiveRecordAddress) for gActiveRecordAddress
    eeprom_emulation_type_a.o(.text.EEPROM_TypeA_repairFormat) refers to eeprom_emulation_type_a.o(.data.gNextRecordAddress) for gNextRecordAddress
    eeprom_emulation_type_a.o(.ARM.exidx.text.EEPROM_TypeA_repairFormat) refers to eeprom_emulation_type_a.o(.text.EEPROM_TypeA_repairFormat) for [Anonymous Symbol]
    eeprom_emulation_type_a.o(.text.EEPROM_TypeA_eraseNonActiveSectors) refers to dl_flashctl.o(.text.DL_FlashCTL_unprotectSector) for DL_FlashCTL_unprotectSector
    eeprom_emulation_type_a.o(.text.EEPROM_TypeA_eraseNonActiveSectors) refers to dl_flashctl.o(.text.DL_FlashCTL_eraseMemoryFromRAM) for DL_FlashCTL_eraseMemoryFromRAM
    eeprom_emulation_type_a.o(.text.EEPROM_TypeA_eraseNonActiveSectors) refers to eeprom_emulation_type_a.o(.data.gActiveSectorNum) for gActiveSectorNum
    eeprom_emulation_type_a.o(.ARM.exidx.text.EEPROM_TypeA_eraseNonActiveSectors) refers to eeprom_emulation_type_a.o(.text.EEPROM_TypeA_eraseNonActiveSectors) for [Anonymous Symbol]
    eeprom_emulation_type_a.o(.text.EEPROM_TypeA_eraseAllSectors) refers to dl_flashctl.o(.text.DL_FlashCTL_unprotectSector) for DL_FlashCTL_unprotectSector
    eeprom_emulation_type_a.o(.text.EEPROM_TypeA_eraseAllSectors) refers to dl_flashctl.o(.text.DL_FlashCTL_eraseMemoryFromRAM) for DL_FlashCTL_eraseMemoryFromRAM
    eeprom_emulation_type_a.o(.ARM.exidx.text.EEPROM_TypeA_eraseAllSectors) refers to eeprom_emulation_type_a.o(.text.EEPROM_TypeA_eraseAllSectors) for [Anonymous Symbol]
    eeprom_emulation_type_a.o(.text.EEPROM_TypeA_eraseLastSector) refers to dl_flashctl.o(.text.DL_FlashCTL_unprotectSector) for DL_FlashCTL_unprotectSector
    eeprom_emulation_type_a.o(.text.EEPROM_TypeA_eraseLastSector) refers to dl_flashctl.o(.text.DL_FlashCTL_eraseMemoryFromRAM) for DL_FlashCTL_eraseMemoryFromRAM
    eeprom_emulation_type_a.o(.text.EEPROM_TypeA_eraseLastSector) refers to eeprom_emulation_type_a.o(.data.gActiveSectorNum) for gActiveSectorNum
    eeprom_emulation_type_a.o(.ARM.exidx.text.EEPROM_TypeA_eraseLastSector) refers to eeprom_emulation_type_a.o(.text.EEPROM_TypeA_eraseLastSector) for [Anonymous Symbol]
    uart.o(.ARM.exidx.text.UART_init) refers to uart.o(.text.UART_init) for [Anonymous Symbol]
    uart.o(.text.MCUTransData8) refers to dl_uart.o(.text.DL_UART_transmitDataBlocking) for DL_UART_transmitDataBlocking
    uart.o(.ARM.exidx.text.MCUTransData8) refers to uart.o(.text.MCUTransData8) for [Anonymous Symbol]
    uart.o(.text.MCUTransData16) refers to dl_uart.o(.text.DL_UART_transmitDataBlocking) for DL_UART_transmitDataBlocking
    uart.o(.ARM.exidx.text.MCUTransData16) refers to uart.o(.text.MCUTransData16) for [Anonymous Symbol]
    mpu6500_spi.o(.text.MPU6500_Write_Byte) refers to dl_spi.o(.text.DL_SPI_transmitDataBlocking8) for DL_SPI_transmitDataBlocking8
    mpu6500_spi.o(.text.MPU6500_Write_Byte) refers to dl_spi.o(.text.DL_SPI_receiveDataBlocking8) for DL_SPI_receiveDataBlocking8
    mpu6500_spi.o(.ARM.exidx.text.MPU6500_Write_Byte) refers to mpu6500_spi.o(.text.MPU6500_Write_Byte) for [Anonymous Symbol]
    mpu6500_spi.o(.text.MPU6500_Read_Byte) refers to dl_spi.o(.text.DL_SPI_transmitDataBlocking8) for DL_SPI_transmitDataBlocking8
    mpu6500_spi.o(.text.MPU6500_Read_Byte) refers to dl_spi.o(.text.DL_SPI_receiveDataBlocking8) for DL_SPI_receiveDataBlocking8
    mpu6500_spi.o(.ARM.exidx.text.MPU6500_Read_Byte) refers to mpu6500_spi.o(.text.MPU6500_Read_Byte) for [Anonymous Symbol]
    mpu6500_spi.o(.ARM.exidx.text.AEncoder) refers to mpu6500_spi.o(.text.AEncoder) for [Anonymous Symbol]
    mpu6500_spi.o(.ARM.exidx.text.ADecoder) refers to mpu6500_spi.o(.text.ADecoder) for [Anonymous Symbol]
    mpu6500_spi.o(.text.MPU6500_Init) refers to dl_spi.o(.text.DL_SPI_transmitDataBlocking8) for DL_SPI_transmitDataBlocking8
    mpu6500_spi.o(.text.MPU6500_Init) refers to dl_spi.o(.text.DL_SPI_receiveDataBlocking8) for DL_SPI_receiveDataBlocking8
    mpu6500_spi.o(.text.MPU6500_Init) refers to dl_common.o(.text.DL_Common_delayCycles) for DL_Common_delayCycles
    mpu6500_spi.o(.text.MPU6500_Init) refers to mpu6500_spi.o(.bss.zGoffset) for [Anonymous Symbol]
    mpu6500_spi.o(.text.MPU6500_Init) refers to mpu6500_spi.o(.bss.yGoffset) for [Anonymous Symbol]
    mpu6500_spi.o(.text.MPU6500_Init) refers to mpu6500_spi.o(.bss.xGoffset) for [Anonymous Symbol]
    mpu6500_spi.o(.text.MPU6500_Init) refers to mpu6500_spi.o(.bss.zAoffset) for [Anonymous Symbol]
    mpu6500_spi.o(.text.MPU6500_Init) refers to mpu6500_spi.o(.bss.yAoffset) for [Anonymous Symbol]
    mpu6500_spi.o(.text.MPU6500_Init) refers to mpu6500_spi.o(.bss.xAoffset) for [Anonymous Symbol]
    mpu6500_spi.o(.ARM.exidx.text.MPU6500_Init) refers to mpu6500_spi.o(.text.MPU6500_Init) for [Anonymous Symbol]
    mpu6500_spi.o(.text.MPU6500_Set_Gyro_Fsr) refers to dl_spi.o(.text.DL_SPI_transmitDataBlocking8) for DL_SPI_transmitDataBlocking8
    mpu6500_spi.o(.text.MPU6500_Set_Gyro_Fsr) refers to dl_spi.o(.text.DL_SPI_receiveDataBlocking8) for DL_SPI_receiveDataBlocking8
    mpu6500_spi.o(.ARM.exidx.text.MPU6500_Set_Gyro_Fsr) refers to mpu6500_spi.o(.text.MPU6500_Set_Gyro_Fsr) for [Anonymous Symbol]
    mpu6500_spi.o(.text.MPU6500_Set_Accel_Fsr) refers to dl_spi.o(.text.DL_SPI_transmitDataBlocking8) for DL_SPI_transmitDataBlocking8
    mpu6500_spi.o(.text.MPU6500_Set_Accel_Fsr) refers to dl_spi.o(.text.DL_SPI_receiveDataBlocking8) for DL_SPI_receiveDataBlocking8
    mpu6500_spi.o(.ARM.exidx.text.MPU6500_Set_Accel_Fsr) refers to mpu6500_spi.o(.text.MPU6500_Set_Accel_Fsr) for [Anonymous Symbol]
    mpu6500_spi.o(.text.MPU6500_Calibration) refers to mpu6500_spi.o(.text.MPU6500_getRawData) for MPU6500_getRawData
    mpu6500_spi.o(.text.MPU6500_Calibration) refers to dl_common.o(.text.DL_Common_delayCycles) for DL_Common_delayCycles
    mpu6500_spi.o(.text.MPU6500_Calibration) refers to daddsub.o(.text) for __aeabi_dadd
    mpu6500_spi.o(.text.MPU6500_Calibration) refers to ddiv.o(.text) for __aeabi_ddiv
    mpu6500_spi.o(.text.MPU6500_Calibration) refers to floor.o(i.floor) for floor
    mpu6500_spi.o(.text.MPU6500_Calibration) refers to dfixi.o(.text) for __aeabi_d2iz
    mpu6500_spi.o(.text.MPU6500_Calibration) refers to oled.o(.text.OLED_ShowSignedNum) for OLED_ShowSignedNum
    mpu6500_spi.o(.text.MPU6500_Calibration) refers to oled.o(.text.OLED_ShowString) for OLED_ShowString
    mpu6500_spi.o(.text.MPU6500_Calibration) refers to mpu6500_spi.o(.bss.xAoffset) for [Anonymous Symbol]
    mpu6500_spi.o(.text.MPU6500_Calibration) refers to mpu6500_spi.o(.bss.yAoffset) for [Anonymous Symbol]
    mpu6500_spi.o(.text.MPU6500_Calibration) refers to mpu6500_spi.o(.bss.zAoffset) for [Anonymous Symbol]
    mpu6500_spi.o(.text.MPU6500_Calibration) refers to mpu6500_spi.o(.bss.xGoffset) for [Anonymous Symbol]
    mpu6500_spi.o(.text.MPU6500_Calibration) refers to mpu6500_spi.o(.bss.yGoffset) for [Anonymous Symbol]
    mpu6500_spi.o(.text.MPU6500_Calibration) refers to mpu6500_spi.o(.bss.zGoffset) for [Anonymous Symbol]
    mpu6500_spi.o(.ARM.exidx.text.MPU6500_Calibration) refers to mpu6500_spi.o(.text.MPU6500_Calibration) for [Anonymous Symbol]
    mpu6500_spi.o(.text.MPU6500_Set_LPF) refers to dl_spi.o(.text.DL_SPI_transmitDataBlocking8) for DL_SPI_transmitDataBlocking8
    mpu6500_spi.o(.text.MPU6500_Set_LPF) refers to dl_spi.o(.text.DL_SPI_receiveDataBlocking8) for DL_SPI_receiveDataBlocking8
    mpu6500_spi.o(.ARM.exidx.text.MPU6500_Set_LPF) refers to mpu6500_spi.o(.text.MPU6500_Set_LPF) for [Anonymous Symbol]
    mpu6500_spi.o(.text.MPU6500_Set_Rate) refers to dl_spi.o(.text.DL_SPI_transmitDataBlocking8) for DL_SPI_transmitDataBlocking8
    mpu6500_spi.o(.text.MPU6500_Set_Rate) refers to dl_spi.o(.text.DL_SPI_receiveDataBlocking8) for DL_SPI_receiveDataBlocking8
    mpu6500_spi.o(.text.MPU6500_Set_Rate) refers to aeabi_sdivfast.o(.text_divfast) for __aeabi_uidiv
    mpu6500_spi.o(.ARM.exidx.text.MPU6500_Set_Rate) refers to mpu6500_spi.o(.text.MPU6500_Set_Rate) for [Anonymous Symbol]
    mpu6500_spi.o(.text.MPU6500_Read_Len) refers to dl_spi.o(.text.DL_SPI_transmitDataBlocking8) for DL_SPI_transmitDataBlocking8
    mpu6500_spi.o(.text.MPU6500_Read_Len) refers to dl_spi.o(.text.DL_SPI_receiveDataBlocking8) for DL_SPI_receiveDataBlocking8
    mpu6500_spi.o(.ARM.exidx.text.MPU6500_Read_Len) refers to mpu6500_spi.o(.text.MPU6500_Read_Len) for [Anonymous Symbol]
    mpu6500_spi.o(.text.MPU6500_Set_xAOFFSET) refers to dl_spi.o(.text.DL_SPI_transmitDataBlocking8) for DL_SPI_transmitDataBlocking8
    mpu6500_spi.o(.text.MPU6500_Set_xAOFFSET) refers to dl_spi.o(.text.DL_SPI_receiveDataBlocking8) for DL_SPI_receiveDataBlocking8
    mpu6500_spi.o(.ARM.exidx.text.MPU6500_Set_xAOFFSET) refers to mpu6500_spi.o(.text.MPU6500_Set_xAOFFSET) for [Anonymous Symbol]
    mpu6500_spi.o(.text.MPU6500_Set_yAOFFSET) refers to dl_spi.o(.text.DL_SPI_transmitDataBlocking8) for DL_SPI_transmitDataBlocking8
    mpu6500_spi.o(.text.MPU6500_Set_yAOFFSET) refers to dl_spi.o(.text.DL_SPI_receiveDataBlocking8) for DL_SPI_receiveDataBlocking8
    mpu6500_spi.o(.ARM.exidx.text.MPU6500_Set_yAOFFSET) refers to mpu6500_spi.o(.text.MPU6500_Set_yAOFFSET) for [Anonymous Symbol]
    mpu6500_spi.o(.text.MPU6500_Set_zAOFFSET) refers to dl_spi.o(.text.DL_SPI_transmitDataBlocking8) for DL_SPI_transmitDataBlocking8
    mpu6500_spi.o(.text.MPU6500_Set_zAOFFSET) refers to dl_spi.o(.text.DL_SPI_receiveDataBlocking8) for DL_SPI_receiveDataBlocking8
    mpu6500_spi.o(.ARM.exidx.text.MPU6500_Set_zAOFFSET) refers to mpu6500_spi.o(.text.MPU6500_Set_zAOFFSET) for [Anonymous Symbol]
    mpu6500_spi.o(.text.MPU6500_Set_xGOFFSET) refers to dl_spi.o(.text.DL_SPI_transmitDataBlocking8) for DL_SPI_transmitDataBlocking8
    mpu6500_spi.o(.text.MPU6500_Set_xGOFFSET) refers to dl_spi.o(.text.DL_SPI_receiveDataBlocking8) for DL_SPI_receiveDataBlocking8
    mpu6500_spi.o(.ARM.exidx.text.MPU6500_Set_xGOFFSET) refers to mpu6500_spi.o(.text.MPU6500_Set_xGOFFSET) for [Anonymous Symbol]
    mpu6500_spi.o(.text.MPU6500_Set_yGOFFSET) refers to dl_spi.o(.text.DL_SPI_transmitDataBlocking8) for DL_SPI_transmitDataBlocking8
    mpu6500_spi.o(.text.MPU6500_Set_yGOFFSET) refers to dl_spi.o(.text.DL_SPI_receiveDataBlocking8) for DL_SPI_receiveDataBlocking8
    mpu6500_spi.o(.ARM.exidx.text.MPU6500_Set_yGOFFSET) refers to mpu6500_spi.o(.text.MPU6500_Set_yGOFFSET) for [Anonymous Symbol]
    mpu6500_spi.o(.text.MPU6500_Set_zGOFFSET) refers to dl_spi.o(.text.DL_SPI_transmitDataBlocking8) for DL_SPI_transmitDataBlocking8
    mpu6500_spi.o(.text.MPU6500_Set_zGOFFSET) refers to dl_spi.o(.text.DL_SPI_receiveDataBlocking8) for DL_SPI_receiveDataBlocking8
    mpu6500_spi.o(.ARM.exidx.text.MPU6500_Set_zGOFFSET) refers to mpu6500_spi.o(.text.MPU6500_Set_zGOFFSET) for [Anonymous Symbol]
    mpu6500_spi.o(.text.MPU6500_getRawData) refers to dl_spi.o(.text.DL_SPI_transmitDataBlocking8) for DL_SPI_transmitDataBlocking8
    mpu6500_spi.o(.text.MPU6500_getRawData) refers to dl_spi.o(.text.DL_SPI_receiveDataBlocking8) for DL_SPI_receiveDataBlocking8
    mpu6500_spi.o(.text.MPU6500_getRawData) refers to dl_common.o(.text.DL_Common_delayCycles) for DL_Common_delayCycles
    mpu6500_spi.o(.text.MPU6500_getRawData) refers to dflti.o(.text) for __aeabi_i2d
    mpu6500_spi.o(.text.MPU6500_getRawData) refers to daddsub.o(.text) for __aeabi_dadd
    mpu6500_spi.o(.text.MPU6500_getRawData) refers to ddiv.o(.text) for __aeabi_ddiv
    mpu6500_spi.o(.text.MPU6500_getRawData) refers to dmul.o(.text) for __aeabi_dmul
    mpu6500_spi.o(.ARM.exidx.text.MPU6500_getRawData) refers to mpu6500_spi.o(.text.MPU6500_getRawData) for [Anonymous Symbol]
    mpu6500_spi.o(.text.MPU6500_getData) refers to dl_spi.o(.text.DL_SPI_transmitDataBlocking8) for DL_SPI_transmitDataBlocking8
    mpu6500_spi.o(.text.MPU6500_getData) refers to dl_spi.o(.text.DL_SPI_receiveDataBlocking8) for DL_SPI_receiveDataBlocking8
    mpu6500_spi.o(.text.MPU6500_getData) refers to dl_common.o(.text.DL_Common_delayCycles) for DL_Common_delayCycles
    mpu6500_spi.o(.text.MPU6500_getData) refers to dflti.o(.text) for __aeabi_i2d
    mpu6500_spi.o(.text.MPU6500_getData) refers to daddsub.o(.text) for __aeabi_dadd
    mpu6500_spi.o(.text.MPU6500_getData) refers to ddiv.o(.text) for __aeabi_ddiv
    mpu6500_spi.o(.text.MPU6500_getData) refers to dmul.o(.text) for __aeabi_dmul
    mpu6500_spi.o(.text.MPU6500_getData) refers to mpu6500_spi.o(.bss.xAoffset) for [Anonymous Symbol]
    mpu6500_spi.o(.text.MPU6500_getData) refers to mpu6500_spi.o(.bss.yAoffset) for [Anonymous Symbol]
    mpu6500_spi.o(.text.MPU6500_getData) refers to mpu6500_spi.o(.bss.zAoffset) for [Anonymous Symbol]
    mpu6500_spi.o(.text.MPU6500_getData) refers to mpu6500_spi.o(.bss.xGoffset) for [Anonymous Symbol]
    mpu6500_spi.o(.text.MPU6500_getData) refers to mpu6500_spi.o(.bss.yGoffset) for [Anonymous Symbol]
    mpu6500_spi.o(.text.MPU6500_getData) refers to mpu6500_spi.o(.bss.zGoffset) for [Anonymous Symbol]
    mpu6500_spi.o(.ARM.exidx.text.MPU6500_getData) refers to mpu6500_spi.o(.text.MPU6500_getData) for [Anonymous Symbol]
    mpu6500_spi.o(.text.MPU6500_UARTDebugger) refers to mpu6500_spi.o(.text.MPU6500_getData) for MPU6500_getData
    mpu6500_spi.o(.ARM.exidx.text.MPU6500_UARTDebugger) refers to mpu6500_spi.o(.text.MPU6500_UARTDebugger) for [Anonymous Symbol]
    pid.o(.text.PID_Cal_Inc) refers to faddsub.o(x$fpl$fsub) for __aeabi_fsub
    pid.o(.text.PID_Cal_Inc) refers to fmul.o(x$fpl$fmul) for __aeabi_fmul
    pid.o(.text.PID_Cal_Inc) refers to faddsub.o(x$fpl$fadd) for __aeabi_fadd
    pid.o(.text.PID_Cal_Inc) refers to fcmp.o(i._fgr) for __aeabi_fcmpgt
    pid.o(.text.PID_Cal_Inc) refers to fcmp.o(i._fls) for __aeabi_fcmplt
    pid.o(.ARM.exidx.text.PID_Cal_Inc) refers to pid.o(.text.PID_Cal_Inc) for [Anonymous Symbol]
    pid.o(.text.PID_Cal_Pos) refers to faddsub.o(x$fpl$fsub) for __aeabi_fsub
    pid.o(.text.PID_Cal_Pos) refers to fmul.o(x$fpl$fmul) for __aeabi_fmul
    pid.o(.text.PID_Cal_Pos) refers to faddsub.o(x$fpl$fadd) for __aeabi_fadd
    pid.o(.text.PID_Cal_Pos) refers to fcmp.o(i._fgr) for __aeabi_fcmpgt
    pid.o(.text.PID_Cal_Pos) refers to fcmp.o(i._fls) for __aeabi_fcmplt
    pid.o(.ARM.exidx.text.PID_Cal_Pos) refers to pid.o(.text.PID_Cal_Pos) for [Anonymous Symbol]
    pid.o(.ARM.exidx.text.Set_PID) refers to pid.o(.text.Set_PID) for [Anonymous Symbol]
    pid.o(.ARM.exidx.text.Set_PID_Limit) refers to pid.o(.text.Set_PID_Limit) for [Anonymous Symbol]
    pid.o(.ARM.exidx.text.PID_Clear) refers to pid.o(.text.PID_Clear) for [Anonymous Symbol]
    ti_msp_dl_config.o(.text.SYSCFG_DL_init) refers to ti_msp_dl_config.o(.text.SYSCFG_DL_initPower) for SYSCFG_DL_initPower
    ti_msp_dl_config.o(.text.SYSCFG_DL_init) refers to ti_msp_dl_config.o(.text.SYSCFG_DL_GPIO_init) for SYSCFG_DL_GPIO_init
    ti_msp_dl_config.o(.text.SYSCFG_DL_init) refers to ti_msp_dl_config.o(.text.SYSCFG_DL_SYSCTL_init) for SYSCFG_DL_SYSCTL_init
    ti_msp_dl_config.o(.text.SYSCFG_DL_init) refers to ti_msp_dl_config.o(.text.SYSCFG_DL_PWM_0_init) for SYSCFG_DL_PWM_0_init
    ti_msp_dl_config.o(.text.SYSCFG_DL_init) refers to ti_msp_dl_config.o(.text.SYSCFG_DL_MOTOR_init) for SYSCFG_DL_MOTOR_init
    ti_msp_dl_config.o(.text.SYSCFG_DL_init) refers to ti_msp_dl_config.o(.text.SYSCFG_DL_Servo_init) for SYSCFG_DL_Servo_init
    ti_msp_dl_config.o(.text.SYSCFG_DL_init) refers to ti_msp_dl_config.o(.text.SYSCFG_DL_TIMER_5ms_init) for SYSCFG_DL_TIMER_5ms_init
    ti_msp_dl_config.o(.text.SYSCFG_DL_init) refers to ti_msp_dl_config.o(.text.SYSCFG_DL_TIMER_1ms_init) for SYSCFG_DL_TIMER_1ms_init
    ti_msp_dl_config.o(.text.SYSCFG_DL_init) refers to ti_msp_dl_config.o(.text.SYSCFG_DL_UART_0_init) for SYSCFG_DL_UART_0_init
    ti_msp_dl_config.o(.text.SYSCFG_DL_init) refers to ti_msp_dl_config.o(.text.SYSCFG_DL_MPU_init) for SYSCFG_DL_MPU_init
    ti_msp_dl_config.o(.text.SYSCFG_DL_init) refers to ti_msp_dl_config.o(.text.SYSCFG_DL_SYSTICK_init) for SYSCFG_DL_SYSTICK_init
    ti_msp_dl_config.o(.text.SYSCFG_DL_init) refers to ti_msp_dl_config.o(.bss.gMOTORBackup) for gMOTORBackup
    ti_msp_dl_config.o(.text.SYSCFG_DL_init) refers to ti_msp_dl_config.o(.bss.gPWM_0Backup) for gPWM_0Backup
    ti_msp_dl_config.o(.text.SYSCFG_DL_init) refers to ti_msp_dl_config.o(.bss.gServoBackup) for gServoBackup
    ti_msp_dl_config.o(.text.SYSCFG_DL_init) refers to ti_msp_dl_config.o(.bss.gTIMER_1msBackup) for gTIMER_1msBackup
    ti_msp_dl_config.o(.text.SYSCFG_DL_init) refers to ti_msp_dl_config.o(.bss.gMPUBackup) for gMPUBackup
    ti_msp_dl_config.o(.ARM.exidx.text.SYSCFG_DL_init) refers to ti_msp_dl_config.o(.text.SYSCFG_DL_init) for [Anonymous Symbol]
    ti_msp_dl_config.o(.text.SYSCFG_DL_initPower) refers to dl_common.o(.text.DL_Common_delayCycles) for DL_Common_delayCycles
    ti_msp_dl_config.o(.ARM.exidx.text.SYSCFG_DL_initPower) refers to ti_msp_dl_config.o(.text.SYSCFG_DL_initPower) for [Anonymous Symbol]
    ti_msp_dl_config.o(.ARM.exidx.text.SYSCFG_DL_GPIO_init) refers to ti_msp_dl_config.o(.text.SYSCFG_DL_GPIO_init) for [Anonymous Symbol]
    ti_msp_dl_config.o(.text.SYSCFG_DL_SYSCTL_init) refers to dl_sysctl_mspm0g1x0x_g3x0x.o(.text.DL_SYSCTL_configSYSPLL) for DL_SYSCTL_configSYSPLL
    ti_msp_dl_config.o(.text.SYSCFG_DL_SYSCTL_init) refers to dl_sysctl_mspm0g1x0x_g3x0x.o(.text.DL_SYSCTL_switchMCLKfromSYSOSCtoHSCLK) for DL_SYSCTL_switchMCLKfromSYSOSCtoHSCLK
    ti_msp_dl_config.o(.text.SYSCFG_DL_SYSCTL_init) refers to ti_msp_dl_config.o(.rodata.gSYSPLLConfig) for [Anonymous Symbol]
    ti_msp_dl_config.o(.ARM.exidx.text.SYSCFG_DL_SYSCTL_init) refers to ti_msp_dl_config.o(.text.SYSCFG_DL_SYSCTL_init) for [Anonymous Symbol]
    ti_msp_dl_config.o(.text.SYSCFG_DL_PWM_0_init) refers to dl_timer.o(.text.DL_Timer_setClockConfig) for DL_Timer_setClockConfig
    ti_msp_dl_config.o(.text.SYSCFG_DL_PWM_0_init) refers to dl_timer.o(.text.DL_TimerA_initPWMMode) for DL_TimerA_initPWMMode
    ti_msp_dl_config.o(.text.SYSCFG_DL_PWM_0_init) refers to dl_timer.o(.text.DL_Timer_setCaptureCompareValue) for DL_Timer_setCaptureCompareValue
    ti_msp_dl_config.o(.text.SYSCFG_DL_PWM_0_init) refers to dl_timer.o(.text.DL_Timer_setCaptureCompareOutCtl) for DL_Timer_setCaptureCompareOutCtl
    ti_msp_dl_config.o(.text.SYSCFG_DL_PWM_0_init) refers to dl_timer.o(.text.DL_Timer_setCaptCompUpdateMethod) for DL_Timer_setCaptCompUpdateMethod
    ti_msp_dl_config.o(.text.SYSCFG_DL_PWM_0_init) refers to ti_msp_dl_config.o(.rodata.gPWM_0ClockConfig) for [Anonymous Symbol]
    ti_msp_dl_config.o(.text.SYSCFG_DL_PWM_0_init) refers to ti_msp_dl_config.o(.rodata.gPWM_0Config) for [Anonymous Symbol]
    ti_msp_dl_config.o(.ARM.exidx.text.SYSCFG_DL_PWM_0_init) refers to ti_msp_dl_config.o(.text.SYSCFG_DL_PWM_0_init) for [Anonymous Symbol]
    ti_msp_dl_config.o(.text.SYSCFG_DL_MOTOR_init) refers to dl_timer.o(.text.DL_Timer_setClockConfig) for DL_Timer_setClockConfig
    ti_msp_dl_config.o(.text.SYSCFG_DL_MOTOR_init) refers to dl_timer.o(.text.DL_Timer_initPWMMode) for DL_Timer_initPWMMode
    ti_msp_dl_config.o(.text.SYSCFG_DL_MOTOR_init) refers to dl_timer.o(.text.DL_Timer_setCaptureCompareValue) for DL_Timer_setCaptureCompareValue
    ti_msp_dl_config.o(.text.SYSCFG_DL_MOTOR_init) refers to dl_timer.o(.text.DL_Timer_setCaptureCompareOutCtl) for DL_Timer_setCaptureCompareOutCtl
    ti_msp_dl_config.o(.text.SYSCFG_DL_MOTOR_init) refers to dl_timer.o(.text.DL_Timer_setCaptCompUpdateMethod) for DL_Timer_setCaptCompUpdateMethod
    ti_msp_dl_config.o(.text.SYSCFG_DL_MOTOR_init) refers to ti_msp_dl_config.o(.rodata.gMOTORClockConfig) for [Anonymous Symbol]
    ti_msp_dl_config.o(.text.SYSCFG_DL_MOTOR_init) refers to ti_msp_dl_config.o(.rodata.gMOTORConfig) for [Anonymous Symbol]
    ti_msp_dl_config.o(.ARM.exidx.text.SYSCFG_DL_MOTOR_init) refers to ti_msp_dl_config.o(.text.SYSCFG_DL_MOTOR_init) for [Anonymous Symbol]
    ti_msp_dl_config.o(.text.SYSCFG_DL_Servo_init) refers to dl_timer.o(.text.DL_Timer_setClockConfig) for DL_Timer_setClockConfig
    ti_msp_dl_config.o(.text.SYSCFG_DL_Servo_init) refers to dl_timer.o(.text.DL_TimerA_initPWMMode) for DL_TimerA_initPWMMode
    ti_msp_dl_config.o(.text.SYSCFG_DL_Servo_init) refers to dl_timer.o(.text.DL_Timer_setCaptureCompareValue) for DL_Timer_setCaptureCompareValue
    ti_msp_dl_config.o(.text.SYSCFG_DL_Servo_init) refers to dl_timer.o(.text.DL_Timer_setCaptureCompareOutCtl) for DL_Timer_setCaptureCompareOutCtl
    ti_msp_dl_config.o(.text.SYSCFG_DL_Servo_init) refers to dl_timer.o(.text.DL_Timer_setCaptCompUpdateMethod) for DL_Timer_setCaptCompUpdateMethod
    ti_msp_dl_config.o(.text.SYSCFG_DL_Servo_init) refers to ti_msp_dl_config.o(.rodata.gServoClockConfig) for [Anonymous Symbol]
    ti_msp_dl_config.o(.text.SYSCFG_DL_Servo_init) refers to ti_msp_dl_config.o(.rodata.gServoConfig) for [Anonymous Symbol]
    ti_msp_dl_config.o(.ARM.exidx.text.SYSCFG_DL_Servo_init) refers to ti_msp_dl_config.o(.text.SYSCFG_DL_Servo_init) for [Anonymous Symbol]
    ti_msp_dl_config.o(.text.SYSCFG_DL_TIMER_5ms_init) refers to dl_timer.o(.text.DL_Timer_setClockConfig) for DL_Timer_setClockConfig
    ti_msp_dl_config.o(.text.SYSCFG_DL_TIMER_5ms_init) refers to dl_timer.o(.text.DL_Timer_initTimerMode) for DL_Timer_initTimerMode
    ti_msp_dl_config.o(.text.SYSCFG_DL_TIMER_5ms_init) refers to ti_msp_dl_config.o(.rodata.gTIMER_5msClockConfig) for [Anonymous Symbol]
    ti_msp_dl_config.o(.text.SYSCFG_DL_TIMER_5ms_init) refers to ti_msp_dl_config.o(.rodata.gTIMER_5msTimerConfig) for [Anonymous Symbol]
    ti_msp_dl_config.o(.ARM.exidx.text.SYSCFG_DL_TIMER_5ms_init) refers to ti_msp_dl_config.o(.text.SYSCFG_DL_TIMER_5ms_init) for [Anonymous Symbol]
    ti_msp_dl_config.o(.text.SYSCFG_DL_TIMER_1ms_init) refers to dl_timer.o(.text.DL_Timer_setClockConfig) for DL_Timer_setClockConfig
    ti_msp_dl_config.o(.text.SYSCFG_DL_TIMER_1ms_init) refers to dl_timer.o(.text.DL_Timer_initTimerMode) for DL_Timer_initTimerMode
    ti_msp_dl_config.o(.text.SYSCFG_DL_TIMER_1ms_init) refers to ti_msp_dl_config.o(.rodata.gTIMER_1msClockConfig) for [Anonymous Symbol]
    ti_msp_dl_config.o(.text.SYSCFG_DL_TIMER_1ms_init) refers to ti_msp_dl_config.o(.rodata.gTIMER_1msTimerConfig) for [Anonymous Symbol]
    ti_msp_dl_config.o(.ARM.exidx.text.SYSCFG_DL_TIMER_1ms_init) refers to ti_msp_dl_config.o(.text.SYSCFG_DL_TIMER_1ms_init) for [Anonymous Symbol]
    ti_msp_dl_config.o(.text.SYSCFG_DL_UART_0_init) refers to dl_uart.o(.text.DL_UART_setClockConfig) for DL_UART_setClockConfig
    ti_msp_dl_config.o(.text.SYSCFG_DL_UART_0_init) refers to dl_uart.o(.text.DL_UART_init) for DL_UART_init
    ti_msp_dl_config.o(.text.SYSCFG_DL_UART_0_init) refers to ti_msp_dl_config.o(.rodata.gUART_0ClockConfig) for [Anonymous Symbol]
    ti_msp_dl_config.o(.text.SYSCFG_DL_UART_0_init) refers to ti_msp_dl_config.o(.rodata.gUART_0Config) for [Anonymous Symbol]
    ti_msp_dl_config.o(.ARM.exidx.text.SYSCFG_DL_UART_0_init) refers to ti_msp_dl_config.o(.text.SYSCFG_DL_UART_0_init) for [Anonymous Symbol]
    ti_msp_dl_config.o(.text.SYSCFG_DL_MPU_init) refers to dl_spi.o(.text.DL_SPI_setClockConfig) for DL_SPI_setClockConfig
    ti_msp_dl_config.o(.text.SYSCFG_DL_MPU_init) refers to dl_spi.o(.text.DL_SPI_init) for DL_SPI_init
    ti_msp_dl_config.o(.text.SYSCFG_DL_MPU_init) refers to ti_msp_dl_config.o(.rodata.gMPU_clockConfig) for [Anonymous Symbol]
    ti_msp_dl_config.o(.text.SYSCFG_DL_MPU_init) refers to ti_msp_dl_config.o(.rodata.gMPU_config) for [Anonymous Symbol]
    ti_msp_dl_config.o(.ARM.exidx.text.SYSCFG_DL_MPU_init) refers to ti_msp_dl_config.o(.text.SYSCFG_DL_MPU_init) for [Anonymous Symbol]
    ti_msp_dl_config.o(.ARM.exidx.text.SYSCFG_DL_SYSTICK_init) refers to ti_msp_dl_config.o(.text.SYSCFG_DL_SYSTICK_init) for [Anonymous Symbol]
    ti_msp_dl_config.o(.text.SYSCFG_DL_saveConfiguration) refers to dl_timer.o(.text.DL_TimerA_saveConfiguration) for DL_TimerA_saveConfiguration
    ti_msp_dl_config.o(.text.SYSCFG_DL_saveConfiguration) refers to dl_timer.o(.text.DL_Timer_saveConfiguration) for DL_Timer_saveConfiguration
    ti_msp_dl_config.o(.text.SYSCFG_DL_saveConfiguration) refers to dl_spi.o(.text.DL_SPI_saveConfiguration) for DL_SPI_saveConfiguration
    ti_msp_dl_config.o(.text.SYSCFG_DL_saveConfiguration) refers to ti_msp_dl_config.o(.bss.gPWM_0Backup) for gPWM_0Backup
    ti_msp_dl_config.o(.text.SYSCFG_DL_saveConfiguration) refers to ti_msp_dl_config.o(.bss.gMOTORBackup) for gMOTORBackup
    ti_msp_dl_config.o(.text.SYSCFG_DL_saveConfiguration) refers to ti_msp_dl_config.o(.bss.gServoBackup) for gServoBackup
    ti_msp_dl_config.o(.text.SYSCFG_DL_saveConfiguration) refers to ti_msp_dl_config.o(.bss.gTIMER_1msBackup) for gTIMER_1msBackup
    ti_msp_dl_config.o(.text.SYSCFG_DL_saveConfiguration) refers to ti_msp_dl_config.o(.bss.gMPUBackup) for gMPUBackup
    ti_msp_dl_config.o(.ARM.exidx.text.SYSCFG_DL_saveConfiguration) refers to ti_msp_dl_config.o(.text.SYSCFG_DL_saveConfiguration) for [Anonymous Symbol]
    ti_msp_dl_config.o(.text.SYSCFG_DL_restoreConfiguration) refers to dl_timer.o(.text.DL_TimerA_restoreConfiguration) for DL_TimerA_restoreConfiguration
    ti_msp_dl_config.o(.text.SYSCFG_DL_restoreConfiguration) refers to dl_timer.o(.text.DL_Timer_restoreConfiguration) for DL_Timer_restoreConfiguration
    ti_msp_dl_config.o(.text.SYSCFG_DL_restoreConfiguration) refers to dl_spi.o(.text.DL_SPI_restoreConfiguration) for DL_SPI_restoreConfiguration
    ti_msp_dl_config.o(.text.SYSCFG_DL_restoreConfiguration) refers to ti_msp_dl_config.o(.bss.gPWM_0Backup) for gPWM_0Backup
    ti_msp_dl_config.o(.text.SYSCFG_DL_restoreConfiguration) refers to ti_msp_dl_config.o(.bss.gMOTORBackup) for gMOTORBackup
    ti_msp_dl_config.o(.text.SYSCFG_DL_restoreConfiguration) refers to ti_msp_dl_config.o(.bss.gServoBackup) for gServoBackup
    ti_msp_dl_config.o(.text.SYSCFG_DL_restoreConfiguration) refers to ti_msp_dl_config.o(.bss.gTIMER_1msBackup) for gTIMER_1msBackup
    ti_msp_dl_config.o(.text.SYSCFG_DL_restoreConfiguration) refers to ti_msp_dl_config.o(.bss.gMPUBackup) for gMPUBackup
    ti_msp_dl_config.o(.ARM.exidx.text.SYSCFG_DL_restoreConfiguration) refers to ti_msp_dl_config.o(.text.SYSCFG_DL_restoreConfiguration) for [Anonymous Symbol]
    startup_mspm0g3507_uvision.o(STACK) refers (Special) to heapauxi.o(.text) for __use_two_region_memory
    startup_mspm0g3507_uvision.o(HEAP) refers (Special) to heapauxi.o(.text) for __use_two_region_memory
    startup_mspm0g3507_uvision.o(RESET) refers (Special) to heapauxi.o(.text) for __use_two_region_memory
    startup_mspm0g3507_uvision.o(RESET) refers to startup_mspm0g3507_uvision.o(STACK) for __initial_sp
    startup_mspm0g3507_uvision.o(RESET) refers to startup_mspm0g3507_uvision.o(.text) for Reset_Handler
    startup_mspm0g3507_uvision.o(RESET) refers to main.o(.text.GROUP1_IRQHandler) for GROUP1_IRQHandler
    startup_mspm0g3507_uvision.o(RESET) refers to main.o(.text.UART1_IRQHandler) for UART1_IRQHandler
    startup_mspm0g3507_uvision.o(RESET) refers to main.o(.text.TIMG0_IRQHandler) for TIMG0_IRQHandler
    startup_mspm0g3507_uvision.o(RESET) refers to main.o(.text.TIMG6_IRQHandler) for TIMG6_IRQHandler
    startup_mspm0g3507_uvision.o(.text) refers (Special) to heapauxi.o(.text) for __use_two_region_memory
    startup_mspm0g3507_uvision.o(.text) refers to __main.o(!!!main) for __main
    startup_mspm0g3507_uvision.o(.text) refers to startup_mspm0g3507_uvision.o(HEAP) for Heap_Mem
    startup_mspm0g3507_uvision.o(.text) refers to startup_mspm0g3507_uvision.o(STACK) for Stack_Mem
    dl_adc12.o(.ARM.exidx.text.DL_ADC12_setClockConfig) refers to dl_adc12.o(.text.DL_ADC12_setClockConfig) for [Anonymous Symbol]
    dl_adc12.o(.ARM.exidx.text.DL_ADC12_getClockConfig) refers to dl_adc12.o(.text.DL_ADC12_getClockConfig) for [Anonymous Symbol]
    dl_aes.o(.ARM.exidx.text.DL_AES_setKey) refers to dl_aes.o(.text.DL_AES_setKey) for [Anonymous Symbol]
    dl_aes.o(.ARM.exidx.text.DL_AES_setKeyAligned) refers to dl_aes.o(.text.DL_AES_setKeyAligned) for [Anonymous Symbol]
    dl_aes.o(.ARM.exidx.text.DL_AES_loadDataIn) refers to dl_aes.o(.text.DL_AES_loadDataIn) for [Anonymous Symbol]
    dl_aes.o(.ARM.exidx.text.DL_AES_loadDataInAligned) refers to dl_aes.o(.text.DL_AES_loadDataInAligned) for [Anonymous Symbol]
    dl_aes.o(.ARM.exidx.text.DL_AES_getDataOut) refers to dl_aes.o(.text.DL_AES_getDataOut) for [Anonymous Symbol]
    dl_aes.o(.ARM.exidx.text.DL_AES_getDataOutAligned) refers to dl_aes.o(.text.DL_AES_getDataOutAligned) for [Anonymous Symbol]
    dl_aes.o(.ARM.exidx.text.DL_AES_loadXORDataIn) refers to dl_aes.o(.text.DL_AES_loadXORDataIn) for [Anonymous Symbol]
    dl_aes.o(.ARM.exidx.text.DL_AES_loadXORDataInAligned) refers to dl_aes.o(.text.DL_AES_loadXORDataInAligned) for [Anonymous Symbol]
    dl_aes.o(.ARM.exidx.text.DL_AES_loadXORDataInWithoutTrigger) refers to dl_aes.o(.text.DL_AES_loadXORDataInWithoutTrigger) for [Anonymous Symbol]
    dl_aes.o(.ARM.exidx.text.DL_AES_loadXORDataInWithoutTriggerAligned) refers to dl_aes.o(.text.DL_AES_loadXORDataInWithoutTriggerAligned) for [Anonymous Symbol]
    dl_aes.o(.ARM.exidx.text.DL_AES_xorData) refers to dl_aes.o(.text.DL_AES_xorData) for [Anonymous Symbol]
    dl_aes.o(.ARM.exidx.text.DL_AES_xorDataAligned) refers to dl_aes.o(.text.DL_AES_xorDataAligned) for [Anonymous Symbol]
    dl_aes.o(.ARM.exidx.text.DL_AES_saveConfiguration) refers to dl_aes.o(.text.DL_AES_saveConfiguration) for [Anonymous Symbol]
    dl_aes.o(.ARM.exidx.text.DL_AES_restoreConfiguration) refers to dl_aes.o(.text.DL_AES_restoreConfiguration) for [Anonymous Symbol]
    dl_common.o(.ARM.exidx.text.DL_Common_delayCycles) refers to dl_common.o(.text.DL_Common_delayCycles) for [Anonymous Symbol]
    dl_crc.o(.ARM.exidx.text.DL_CRC_calculateBlock32) refers to dl_crc.o(.text.DL_CRC_calculateBlock32) for [Anonymous Symbol]
    dl_crc.o(.ARM.exidx.text.DL_CRC_calculateMemoryRange32) refers to dl_crc.o(.text.DL_CRC_calculateMemoryRange32) for [Anonymous Symbol]
    dl_crc.o(.ARM.exidx.text.DL_CRC_calculateBlock16) refers to dl_crc.o(.text.DL_CRC_calculateBlock16) for [Anonymous Symbol]
    dl_crc.o(.ARM.exidx.text.DL_CRC_calculateMemoryRange16) refers to dl_crc.o(.text.DL_CRC_calculateMemoryRange16) for [Anonymous Symbol]
    dl_dac12.o(.ARM.exidx.text.DL_DAC12_init) refers to dl_dac12.o(.text.DL_DAC12_init) for [Anonymous Symbol]
    dl_dac12.o(.ARM.exidx.text.DL_DAC12_outputBlocking8) refers to dl_dac12.o(.text.DL_DAC12_outputBlocking8) for [Anonymous Symbol]
    dl_dac12.o(.ARM.exidx.text.DL_DAC12_outputBlocking12) refers to dl_dac12.o(.text.DL_DAC12_outputBlocking12) for [Anonymous Symbol]
    dl_dac12.o(.ARM.exidx.text.DL_DAC12_fillFIFO8) refers to dl_dac12.o(.text.DL_DAC12_fillFIFO8) for [Anonymous Symbol]
    dl_dac12.o(.ARM.exidx.text.DL_DAC12_fillFIFO12) refers to dl_dac12.o(.text.DL_DAC12_fillFIFO12) for [Anonymous Symbol]
    dl_dac12.o(.ARM.exidx.text.DL_DAC12_performSelfCalibrationBlocking) refers to dl_dac12.o(.text.DL_DAC12_performSelfCalibrationBlocking) for [Anonymous Symbol]
    dl_dma.o(.ARM.exidx.text.DL_DMA_initChannel) refers to dl_dma.o(.text.DL_DMA_initChannel) for [Anonymous Symbol]
    dl_flashctl.o(.ARM.exidx.text.DL_FlashCTL_eraseMemory) refers to dl_flashctl.o(.text.DL_FlashCTL_eraseMemory) for [Anonymous Symbol]
    dl_flashctl.o(.text.DL_FlashCTL_eraseMemoryFromRAM) refers to dl_flashctl.o(.ramfunc) for DL_FlashCTL_executeCommandFromRAM
    dl_flashctl.o(.ARM.exidx.text.DL_FlashCTL_eraseMemoryFromRAM) refers to dl_flashctl.o(.text.DL_FlashCTL_eraseMemoryFromRAM) for [Anonymous Symbol]
    dl_flashctl.o(.ARM.exidx.ramfunc) refers to dl_flashctl.o(.ramfunc) for [Anonymous Symbol]
    dl_flashctl.o(.ARM.exidx.text.DL_FlashCTL_massErase) refers to dl_flashctl.o(.text.DL_FlashCTL_massErase) for [Anonymous Symbol]
    dl_flashctl.o(.ARM.exidx.text.DL_FlashCTL_unprotectMainMemory) refers to dl_flashctl.o(.text.DL_FlashCTL_unprotectMainMemory) for [Anonymous Symbol]
    dl_flashctl.o(.ARM.exidx.text.DL_FlashCTL_protectNonMainMemory) refers to dl_flashctl.o(.text.DL_FlashCTL_protectNonMainMemory) for [Anonymous Symbol]
    dl_flashctl.o(.ARM.exidx.text.DL_FlashCTL_eraseDataBank) refers to dl_flashctl.o(.text.DL_FlashCTL_eraseDataBank) for [Anonymous Symbol]
    dl_flashctl.o(.text.DL_FlashCTL_massEraseFromRAM) refers to dl_flashctl.o(.ramfunc) for DL_FlashCTL_executeCommandFromRAM
    dl_flashctl.o(.ARM.exidx.text.DL_FlashCTL_massEraseFromRAM) refers to dl_flashctl.o(.text.DL_FlashCTL_massEraseFromRAM) for [Anonymous Symbol]
    dl_flashctl.o(.text.DL_FlashCTL_eraseDataBankFromRAM) refers to dl_flashctl.o(.ramfunc) for DL_FlashCTL_executeCommandFromRAM
    dl_flashctl.o(.ARM.exidx.text.DL_FlashCTL_eraseDataBankFromRAM) refers to dl_flashctl.o(.text.DL_FlashCTL_eraseDataBankFromRAM) for [Anonymous Symbol]
    dl_flashctl.o(.text.DL_FlashCTL_massEraseMultiBank) refers to aeabi_sdivfast.o(.text_divfast) for __aeabi_uidiv
    dl_flashctl.o(.ARM.exidx.text.DL_FlashCTL_massEraseMultiBank) refers to dl_flashctl.o(.text.DL_FlashCTL_massEraseMultiBank) for [Anonymous Symbol]
    dl_flashctl.o(.ARM.exidx.text.DL_FlashCTL_factoryReset) refers to dl_flashctl.o(.text.DL_FlashCTL_factoryReset) for [Anonymous Symbol]
    dl_flashctl.o(.ARM.exidx.text.DL_FlashCTL_unprotectNonMainMemory) refers to dl_flashctl.o(.text.DL_FlashCTL_unprotectNonMainMemory) for [Anonymous Symbol]
    dl_flashctl.o(.text.DL_FlashCTL_factoryResetFromRAM) refers to dl_flashctl.o(.ramfunc) for DL_FlashCTL_executeCommandFromRAM
    dl_flashctl.o(.ARM.exidx.text.DL_FlashCTL_factoryResetFromRAM) refers to dl_flashctl.o(.text.DL_FlashCTL_factoryResetFromRAM) for [Anonymous Symbol]
    dl_flashctl.o(.text.DL_FlashCTL_factoryResetMultiBank) refers to dl_flashctl.o(.text.DL_FlashCTL_massEraseMultiBank) for DL_FlashCTL_massEraseMultiBank
    dl_flashctl.o(.ARM.exidx.text.DL_FlashCTL_factoryResetMultiBank) refers to dl_flashctl.o(.text.DL_FlashCTL_factoryResetMultiBank) for [Anonymous Symbol]
    dl_flashctl.o(.ARM.exidx.text.DL_FlashCTL_programMemory8) refers to dl_flashctl.o(.text.DL_FlashCTL_programMemory8) for [Anonymous Symbol]
    dl_flashctl.o(.text.DL_FlashCTL_programMemoryFromRAM8) refers to dl_flashctl.o(.ramfunc) for DL_FlashCTL_executeCommandFromRAM
    dl_flashctl.o(.ARM.exidx.text.DL_FlashCTL_programMemoryFromRAM8) refers to dl_flashctl.o(.text.DL_FlashCTL_programMemoryFromRAM8) for [Anonymous Symbol]
    dl_flashctl.o(.ARM.exidx.text.DL_FlashCTL_programMemory16) refers to dl_flashctl.o(.text.DL_FlashCTL_programMemory16) for [Anonymous Symbol]
    dl_flashctl.o(.text.DL_FlashCTL_programMemoryFromRAM16) refers to dl_flashctl.o(.ramfunc) for DL_FlashCTL_executeCommandFromRAM
    dl_flashctl.o(.ARM.exidx.text.DL_FlashCTL_programMemoryFromRAM16) refers to dl_flashctl.o(.text.DL_FlashCTL_programMemoryFromRAM16) for [Anonymous Symbol]
    dl_flashctl.o(.ARM.exidx.text.DL_FlashCTL_programMemory32) refers to dl_flashctl.o(.text.DL_FlashCTL_programMemory32) for [Anonymous Symbol]
    dl_flashctl.o(.text.DL_FlashCTL_programMemoryFromRAM32) refers to dl_flashctl.o(.ramfunc) for DL_FlashCTL_executeCommandFromRAM
    dl_flashctl.o(.ARM.exidx.text.DL_FlashCTL_programMemoryFromRAM32) refers to dl_flashctl.o(.text.DL_FlashCTL_programMemoryFromRAM32) for [Anonymous Symbol]
    dl_flashctl.o(.ARM.exidx.text.DL_FlashCTL_programMemory64) refers to dl_flashctl.o(.text.DL_FlashCTL_programMemory64) for [Anonymous Symbol]
    dl_flashctl.o(.text.DL_FlashCTL_programMemoryFromRAM64) refers to dl_flashctl.o(.ramfunc) for DL_FlashCTL_executeCommandFromRAM
    dl_flashctl.o(.ARM.exidx.text.DL_FlashCTL_programMemoryFromRAM64) refers to dl_flashctl.o(.text.DL_FlashCTL_programMemoryFromRAM64) for [Anonymous Symbol]
    dl_flashctl.o(.ARM.exidx.text.DL_FlashCTL_programMemory8WithECCGenerated) refers to dl_flashctl.o(.text.DL_FlashCTL_programMemory8WithECCGenerated) for [Anonymous Symbol]
    dl_flashctl.o(.text.DL_FlashCTL_programMemoryFromRAM8WithECCGenerated) refers to dl_flashctl.o(.ramfunc) for DL_FlashCTL_executeCommandFromRAM
    dl_flashctl.o(.ARM.exidx.text.DL_FlashCTL_programMemoryFromRAM8WithECCGenerated) refers to dl_flashctl.o(.text.DL_FlashCTL_programMemoryFromRAM8WithECCGenerated) for [Anonymous Symbol]
    dl_flashctl.o(.ARM.exidx.text.DL_FlashCTL_programMemory16WithECCGenerated) refers to dl_flashctl.o(.text.DL_FlashCTL_programMemory16WithECCGenerated) for [Anonymous Symbol]
    dl_flashctl.o(.text.DL_FlashCTL_programMemoryFromRAM16WithECCGenerated) refers to dl_flashctl.o(.ramfunc) for DL_FlashCTL_executeCommandFromRAM
    dl_flashctl.o(.ARM.exidx.text.DL_FlashCTL_programMemoryFromRAM16WithECCGenerated) refers to dl_flashctl.o(.text.DL_FlashCTL_programMemoryFromRAM16WithECCGenerated) for [Anonymous Symbol]
    dl_flashctl.o(.ARM.exidx.text.DL_FlashCTL_programMemory32WithECCGenerated) refers to dl_flashctl.o(.text.DL_FlashCTL_programMemory32WithECCGenerated) for [Anonymous Symbol]
    dl_flashctl.o(.text.DL_FlashCTL_programMemoryFromRAM32WithECCGenerated) refers to dl_flashctl.o(.ramfunc) for DL_FlashCTL_executeCommandFromRAM
    dl_flashctl.o(.ARM.exidx.text.DL_FlashCTL_programMemoryFromRAM32WithECCGenerated) refers to dl_flashctl.o(.text.DL_FlashCTL_programMemoryFromRAM32WithECCGenerated) for [Anonymous Symbol]
    dl_flashctl.o(.ARM.exidx.text.DL_FlashCTL_programMemory64WithECCGenerated) refers to dl_flashctl.o(.text.DL_FlashCTL_programMemory64WithECCGenerated) for [Anonymous Symbol]
    dl_flashctl.o(.text.DL_FlashCTL_programMemoryFromRAM64WithECCGenerated) refers to dl_flashctl.o(.ramfunc) for DL_FlashCTL_executeCommandFromRAM
    dl_flashctl.o(.ARM.exidx.text.DL_FlashCTL_programMemoryFromRAM64WithECCGenerated) refers to dl_flashctl.o(.text.DL_FlashCTL_programMemoryFromRAM64WithECCGenerated) for [Anonymous Symbol]
    dl_flashctl.o(.ARM.exidx.text.DL_FlashCTL_programMemory8WithECCManual) refers to dl_flashctl.o(.text.DL_FlashCTL_programMemory8WithECCManual) for [Anonymous Symbol]
    dl_flashctl.o(.text.DL_FlashCTL_programMemoryFromRAM8WithECCManual) refers to dl_flashctl.o(.ramfunc) for DL_FlashCTL_executeCommandFromRAM
    dl_flashctl.o(.ARM.exidx.text.DL_FlashCTL_programMemoryFromRAM8WithECCManual) refers to dl_flashctl.o(.text.DL_FlashCTL_programMemoryFromRAM8WithECCManual) for [Anonymous Symbol]
    dl_flashctl.o(.ARM.exidx.text.DL_FlashCTL_programMemory16WithECCManual) refers to dl_flashctl.o(.text.DL_FlashCTL_programMemory16WithECCManual) for [Anonymous Symbol]
    dl_flashctl.o(.text.DL_FlashCTL_programMemoryFromRAM16WithECCManual) refers to dl_flashctl.o(.ramfunc) for DL_FlashCTL_executeCommandFromRAM
    dl_flashctl.o(.ARM.exidx.text.DL_FlashCTL_programMemoryFromRAM16WithECCManual) refers to dl_flashctl.o(.text.DL_FlashCTL_programMemoryFromRAM16WithECCManual) for [Anonymous Symbol]
    dl_flashctl.o(.ARM.exidx.text.DL_FlashCTL_programMemory32WithECCManual) refers to dl_flashctl.o(.text.DL_FlashCTL_programMemory32WithECCManual) for [Anonymous Symbol]
    dl_flashctl.o(.text.DL_FlashCTL_programMemoryFromRAM32WithECCManual) refers to dl_flashctl.o(.ramfunc) for DL_FlashCTL_executeCommandFromRAM
    dl_flashctl.o(.ARM.exidx.text.DL_FlashCTL_programMemoryFromRAM32WithECCManual) refers to dl_flashctl.o(.text.DL_FlashCTL_programMemoryFromRAM32WithECCManual) for [Anonymous Symbol]
    dl_flashctl.o(.ARM.exidx.text.DL_FlashCTL_programMemory64WithECCManual) refers to dl_flashctl.o(.text.DL_FlashCTL_programMemory64WithECCManual) for [Anonymous Symbol]
    dl_flashctl.o(.text.DL_FlashCTL_programMemoryFromRAM64WithECCManual) refers to dl_flashctl.o(.ramfunc) for DL_FlashCTL_executeCommandFromRAM
    dl_flashctl.o(.ARM.exidx.text.DL_FlashCTL_programMemoryFromRAM64WithECCManual) refers to dl_flashctl.o(.text.DL_FlashCTL_programMemoryFromRAM64WithECCManual) for [Anonymous Symbol]
    dl_flashctl.o(.text.DL_FlashCTL_programMemoryBlocking64WithECCGenerated) refers to dl_flashctl.o(.text.DL_FlashCTL_unprotectSector) for DL_FlashCTL_unprotectSector
    dl_flashctl.o(.ARM.exidx.text.DL_FlashCTL_programMemoryBlocking64WithECCGenerated) refers to dl_flashctl.o(.text.DL_FlashCTL_programMemoryBlocking64WithECCGenerated) for [Anonymous Symbol]
    dl_flashctl.o(.text.DL_FlashCTL_unprotectSector) refers to aeabi_sdivfast.o(.text_divfast) for __aeabi_uidiv
    dl_flashctl.o(.text.DL_FlashCTL_unprotectSector) refers to aeabi_sdivfast.o(.text) for __aeabi_uidivmod
    dl_flashctl.o(.ARM.exidx.text.DL_FlashCTL_unprotectSector) refers to dl_flashctl.o(.text.DL_FlashCTL_unprotectSector) for [Anonymous Symbol]
    dl_flashctl.o(.text.DL_FlashCTL_programMemoryBlockingFromRAM64WithECCGenerated) refers to dl_flashctl.o(.text.DL_FlashCTL_unprotectSector) for DL_FlashCTL_unprotectSector
    dl_flashctl.o(.text.DL_FlashCTL_programMemoryBlockingFromRAM64WithECCGenerated) refers to dl_flashctl.o(.ramfunc) for DL_FlashCTL_executeCommandFromRAM
    dl_flashctl.o(.ARM.exidx.text.DL_FlashCTL_programMemoryBlockingFromRAM64WithECCGenerated) refers to dl_flashctl.o(.text.DL_FlashCTL_programMemoryBlockingFromRAM64WithECCGenerated) for [Anonymous Symbol]
    dl_flashctl.o(.text.DL_FlashCTL_programMemoryBlocking64WithECCManual) refers to dl_flashctl.o(.text.DL_FlashCTL_unprotectSector) for DL_FlashCTL_unprotectSector
    dl_flashctl.o(.ARM.exidx.text.DL_FlashCTL_programMemoryBlocking64WithECCManual) refers to dl_flashctl.o(.text.DL_FlashCTL_programMemoryBlocking64WithECCManual) for [Anonymous Symbol]
    dl_flashctl.o(.text.DL_FlashCTL_programMemoryBlockingFromRAM64WithECCManual) refers to dl_flashctl.o(.text.DL_FlashCTL_unprotectSector) for DL_FlashCTL_unprotectSector
    dl_flashctl.o(.text.DL_FlashCTL_programMemoryBlockingFromRAM64WithECCManual) refers to dl_flashctl.o(.ramfunc) for DL_FlashCTL_executeCommandFromRAM
    dl_flashctl.o(.ARM.exidx.text.DL_FlashCTL_programMemoryBlockingFromRAM64WithECCManual) refers to dl_flashctl.o(.text.DL_FlashCTL_programMemoryBlockingFromRAM64WithECCManual) for [Anonymous Symbol]
    dl_flashctl.o(.text.DL_FlashCTL_programMemoryBlocking) refers to dl_flashctl.o(.text.DL_FlashCTL_unprotectSector) for DL_FlashCTL_unprotectSector
    dl_flashctl.o(.ARM.exidx.text.DL_FlashCTL_programMemoryBlocking) refers to dl_flashctl.o(.text.DL_FlashCTL_programMemoryBlocking) for [Anonymous Symbol]
    dl_flashctl.o(.text.DL_FlashCTL_programMemoryFromRAM) refers to dl_flashctl.o(.text.DL_FlashCTL_unprotectSector) for DL_FlashCTL_unprotectSector
    dl_flashctl.o(.text.DL_FlashCTL_programMemoryFromRAM) refers to dl_flashctl.o(.ramfunc) for DL_FlashCTL_executeCommandFromRAM
    dl_flashctl.o(.ARM.exidx.text.DL_FlashCTL_programMemoryFromRAM) refers to dl_flashctl.o(.text.DL_FlashCTL_programMemoryFromRAM) for [Anonymous Symbol]
    dl_flashctl.o(.ARM.exidx.text.DL_FlashCTL_unprotectDataMemory) refers to dl_flashctl.o(.text.DL_FlashCTL_unprotectDataMemory) for [Anonymous Symbol]
    dl_flashctl.o(.ARM.exidx.text.DL_FlashCTL_protectMainMemory) refers to dl_flashctl.o(.text.DL_FlashCTL_protectMainMemory) for [Anonymous Symbol]
    dl_flashctl.o(.ARM.exidx.text.DL_FlashCTL_unprotectAllMemory) refers to dl_flashctl.o(.text.DL_FlashCTL_unprotectAllMemory) for [Anonymous Symbol]
    dl_flashctl.o(.ARM.exidx.text.DL_FlashCTL_protectAllMemory) refers to dl_flashctl.o(.text.DL_FlashCTL_protectAllMemory) for [Anonymous Symbol]
    dl_flashctl.o(.text.DL_FlashCTL_protectSector) refers to aeabi_sdivfast.o(.text_divfast) for __aeabi_uidiv
    dl_flashctl.o(.text.DL_FlashCTL_protectSector) refers to aeabi_sdivfast.o(.text) for __aeabi_uidivmod
    dl_flashctl.o(.ARM.exidx.text.DL_FlashCTL_protectSector) refers to dl_flashctl.o(.text.DL_FlashCTL_protectSector) for [Anonymous Symbol]
    dl_flashctl.o(.ARM.exidx.text.DL_FlashCTL_readVerify8) refers to dl_flashctl.o(.text.DL_FlashCTL_readVerify8) for [Anonymous Symbol]
    dl_flashctl.o(.ARM.exidx.text.DL_FlashCTL_readVerify16) refers to dl_flashctl.o(.text.DL_FlashCTL_readVerify16) for [Anonymous Symbol]
    dl_flashctl.o(.ARM.exidx.text.DL_FlashCTL_readVerify32) refers to dl_flashctl.o(.text.DL_FlashCTL_readVerify32) for [Anonymous Symbol]
    dl_flashctl.o(.ARM.exidx.text.DL_FlashCTL_readVerify64) refers to dl_flashctl.o(.text.DL_FlashCTL_readVerify64) for [Anonymous Symbol]
    dl_flashctl.o(.text.DL_FlashCTL_readVerifyFromRAM8) refers to dl_flashctl.o(.ramfunc) for DL_FlashCTL_executeCommandFromRAM
    dl_flashctl.o(.ARM.exidx.text.DL_FlashCTL_readVerifyFromRAM8) refers to dl_flashctl.o(.text.DL_FlashCTL_readVerifyFromRAM8) for [Anonymous Symbol]
    dl_flashctl.o(.text.DL_FlashCTL_readVerifyFromRAM16) refers to dl_flashctl.o(.ramfunc) for DL_FlashCTL_executeCommandFromRAM
    dl_flashctl.o(.ARM.exidx.text.DL_FlashCTL_readVerifyFromRAM16) refers to dl_flashctl.o(.text.DL_FlashCTL_readVerifyFromRAM16) for [Anonymous Symbol]
    dl_flashctl.o(.text.DL_FlashCTL_readVerifyFromRAM32) refers to dl_flashctl.o(.ramfunc) for DL_FlashCTL_executeCommandFromRAM
    dl_flashctl.o(.ARM.exidx.text.DL_FlashCTL_readVerifyFromRAM32) refers to dl_flashctl.o(.text.DL_FlashCTL_readVerifyFromRAM32) for [Anonymous Symbol]
    dl_flashctl.o(.text.DL_FlashCTL_readVerifyFromRAM64) refers to dl_flashctl.o(.ramfunc) for DL_FlashCTL_executeCommandFromRAM
    dl_flashctl.o(.ARM.exidx.text.DL_FlashCTL_readVerifyFromRAM64) refers to dl_flashctl.o(.text.DL_FlashCTL_readVerifyFromRAM64) for [Anonymous Symbol]
    dl_flashctl.o(.text.DL_FlashCTL_readVerifyFromRAM8WithECCGenerated) refers to dl_flashctl.o(.ramfunc) for DL_FlashCTL_executeCommandFromRAM
    dl_flashctl.o(.ARM.exidx.text.DL_FlashCTL_readVerifyFromRAM8WithECCGenerated) refers to dl_flashctl.o(.text.DL_FlashCTL_readVerifyFromRAM8WithECCGenerated) for [Anonymous Symbol]
    dl_flashctl.o(.text.DL_FlashCTL_readVerifyFromRAM16WithECCGenerated) refers to dl_flashctl.o(.ramfunc) for DL_FlashCTL_executeCommandFromRAM
    dl_flashctl.o(.ARM.exidx.text.DL_FlashCTL_readVerifyFromRAM16WithECCGenerated) refers to dl_flashctl.o(.text.DL_FlashCTL_readVerifyFromRAM16WithECCGenerated) for [Anonymous Symbol]
    dl_flashctl.o(.text.DL_FlashCTL_readVerifyFromRAM32WithECCGenerated) refers to dl_flashctl.o(.ramfunc) for DL_FlashCTL_executeCommandFromRAM
    dl_flashctl.o(.ARM.exidx.text.DL_FlashCTL_readVerifyFromRAM32WithECCGenerated) refers to dl_flashctl.o(.text.DL_FlashCTL_readVerifyFromRAM32WithECCGenerated) for [Anonymous Symbol]
    dl_flashctl.o(.text.DL_FlashCTL_readVerifyFromRAM64WithECCGenerated) refers to dl_flashctl.o(.ramfunc) for DL_FlashCTL_executeCommandFromRAM
    dl_flashctl.o(.ARM.exidx.text.DL_FlashCTL_readVerifyFromRAM64WithECCGenerated) refers to dl_flashctl.o(.text.DL_FlashCTL_readVerifyFromRAM64WithECCGenerated) for [Anonymous Symbol]
    dl_flashctl.o(.text.DL_FlashCTL_readVerifyFromRAM8WithECCManual) refers to dl_flashctl.o(.ramfunc) for DL_FlashCTL_executeCommandFromRAM
    dl_flashctl.o(.ARM.exidx.text.DL_FlashCTL_readVerifyFromRAM8WithECCManual) refers to dl_flashctl.o(.text.DL_FlashCTL_readVerifyFromRAM8WithECCManual) for [Anonymous Symbol]
    dl_flashctl.o(.text.DL_FlashCTL_readVerifyFromRAM16WithECCManual) refers to dl_flashctl.o(.ramfunc) for DL_FlashCTL_executeCommandFromRAM
    dl_flashctl.o(.ARM.exidx.text.DL_FlashCTL_readVerifyFromRAM16WithECCManual) refers to dl_flashctl.o(.text.DL_FlashCTL_readVerifyFromRAM16WithECCManual) for [Anonymous Symbol]
    dl_flashctl.o(.text.DL_FlashCTL_readVerifyFromRAM32WithECCManual) refers to dl_flashctl.o(.ramfunc) for DL_FlashCTL_executeCommandFromRAM
    dl_flashctl.o(.ARM.exidx.text.DL_FlashCTL_readVerifyFromRAM32WithECCManual) refers to dl_flashctl.o(.text.DL_FlashCTL_readVerifyFromRAM32WithECCManual) for [Anonymous Symbol]
    dl_flashctl.o(.text.DL_FlashCTL_readVerifyFromRAM64WithECCManual) refers to dl_flashctl.o(.ramfunc) for DL_FlashCTL_executeCommandFromRAM
    dl_flashctl.o(.ARM.exidx.text.DL_FlashCTL_readVerifyFromRAM64WithECCManual) refers to dl_flashctl.o(.text.DL_FlashCTL_readVerifyFromRAM64WithECCManual) for [Anonymous Symbol]
    dl_flashctl.o(.ARM.exidx.text.DL_FlashCTL_readVerify8WithECCGenerated) refers to dl_flashctl.o(.text.DL_FlashCTL_readVerify8WithECCGenerated) for [Anonymous Symbol]
    dl_flashctl.o(.ARM.exidx.text.DL_FlashCTL_readVerify16WithECCGenerated) refers to dl_flashctl.o(.text.DL_FlashCTL_readVerify16WithECCGenerated) for [Anonymous Symbol]
    dl_flashctl.o(.ARM.exidx.text.DL_FlashCTL_readVerify32WithECCGenerated) refers to dl_flashctl.o(.text.DL_FlashCTL_readVerify32WithECCGenerated) for [Anonymous Symbol]
    dl_flashctl.o(.ARM.exidx.text.DL_FlashCTL_readVerify64WithECCGenerated) refers to dl_flashctl.o(.text.DL_FlashCTL_readVerify64WithECCGenerated) for [Anonymous Symbol]
    dl_flashctl.o(.ARM.exidx.text.DL_FlashCTL_readVerify8WithECCManual) refers to dl_flashctl.o(.text.DL_FlashCTL_readVerify8WithECCManual) for [Anonymous Symbol]
    dl_flashctl.o(.ARM.exidx.text.DL_FlashCTL_readVerify16WithECCManual) refers to dl_flashctl.o(.text.DL_FlashCTL_readVerify16WithECCManual) for [Anonymous Symbol]
    dl_flashctl.o(.ARM.exidx.text.DL_FlashCTL_readVerify32WithECCManual) refers to dl_flashctl.o(.text.DL_FlashCTL_readVerify32WithECCManual) for [Anonymous Symbol]
    dl_flashctl.o(.ARM.exidx.text.DL_FlashCTL_readVerify64WithECCManual) refers to dl_flashctl.o(.text.DL_FlashCTL_readVerify64WithECCManual) for [Anonymous Symbol]
    dl_flashctl.o(.ARM.exidx.text.DL_FlashCTL_blankVerify) refers to dl_flashctl.o(.text.DL_FlashCTL_blankVerify) for [Anonymous Symbol]
    dl_flashctl.o(.text.DL_FlashCTL_blankVerifyFromRAM) refers to dl_flashctl.o(.ramfunc) for DL_FlashCTL_executeCommandFromRAM
    dl_flashctl.o(.ARM.exidx.text.DL_FlashCTL_blankVerifyFromRAM) refers to dl_flashctl.o(.text.DL_FlashCTL_blankVerifyFromRAM) for [Anonymous Symbol]
    dl_i2c.o(.ARM.exidx.text.DL_I2C_setClockConfig) refers to dl_i2c.o(.text.DL_I2C_setClockConfig) for [Anonymous Symbol]
    dl_i2c.o(.ARM.exidx.text.DL_I2C_getClockConfig) refers to dl_i2c.o(.text.DL_I2C_getClockConfig) for [Anonymous Symbol]
    dl_i2c.o(.ARM.exidx.text.DL_I2C_fillControllerTXFIFO) refers to dl_i2c.o(.text.DL_I2C_fillControllerTXFIFO) for [Anonymous Symbol]
    dl_i2c.o(.ARM.exidx.text.DL_I2C_flushControllerTXFIFO) refers to dl_i2c.o(.text.DL_I2C_flushControllerTXFIFO) for [Anonymous Symbol]
    dl_i2c.o(.ARM.exidx.text.DL_I2C_flushControllerRXFIFO) refers to dl_i2c.o(.text.DL_I2C_flushControllerRXFIFO) for [Anonymous Symbol]
    dl_i2c.o(.ARM.exidx.text.DL_I2C_fillTargetTXFIFO) refers to dl_i2c.o(.text.DL_I2C_fillTargetTXFIFO) for [Anonymous Symbol]
    dl_i2c.o(.ARM.exidx.text.DL_I2C_flushTargetTXFIFO) refers to dl_i2c.o(.text.DL_I2C_flushTargetTXFIFO) for [Anonymous Symbol]
    dl_i2c.o(.ARM.exidx.text.DL_I2C_flushTargetRXFIFO) refers to dl_i2c.o(.text.DL_I2C_flushTargetRXFIFO) for [Anonymous Symbol]
    dl_i2c.o(.ARM.exidx.text.DL_I2C_transmitTargetDataBlocking) refers to dl_i2c.o(.text.DL_I2C_transmitTargetDataBlocking) for [Anonymous Symbol]
    dl_i2c.o(.ARM.exidx.text.DL_I2C_transmitTargetDataCheck) refers to dl_i2c.o(.text.DL_I2C_transmitTargetDataCheck) for [Anonymous Symbol]
    dl_i2c.o(.ARM.exidx.text.DL_I2C_receiveTargetDataBlocking) refers to dl_i2c.o(.text.DL_I2C_receiveTargetDataBlocking) for [Anonymous Symbol]
    dl_i2c.o(.ARM.exidx.text.DL_I2C_receiveTargetDataCheck) refers to dl_i2c.o(.text.DL_I2C_receiveTargetDataCheck) for [Anonymous Symbol]
    dl_mathacl.o(.ARM.exidx.text.DL_MathACL_configOperation) refers to dl_mathacl.o(.text.DL_MathACL_configOperation) for [Anonymous Symbol]
    dl_mcan.o(.ARM.exidx.text.DL_MCAN_isReady) refers to dl_mcan.o(.text.DL_MCAN_isReady) for [Anonymous Symbol]
    dl_mcan.o(.ARM.exidx.text.DL_MCAN_setClockConfig) refers to dl_mcan.o(.text.DL_MCAN_setClockConfig) for [Anonymous Symbol]
    dl_mcan.o(.ARM.exidx.text.DL_MCAN_getClockConfig) refers to dl_mcan.o(.text.DL_MCAN_getClockConfig) for [Anonymous Symbol]
    dl_mcan.o(.ARM.exidx.text.DL_MCAN_isInReset) refers to dl_mcan.o(.text.DL_MCAN_isInReset) for [Anonymous Symbol]
    dl_mcan.o(.ARM.exidx.text.DL_MCAN_isFDOpEnable) refers to dl_mcan.o(.text.DL_MCAN_isFDOpEnable) for [Anonymous Symbol]
    dl_mcan.o(.ARM.exidx.text.DL_MCAN_isMemInitDone) refers to dl_mcan.o(.text.DL_MCAN_isMemInitDone) for [Anonymous Symbol]
    dl_mcan.o(.ARM.exidx.text.DL_MCAN_setOpMode) refers to dl_mcan.o(.text.DL_MCAN_setOpMode) for [Anonymous Symbol]
    dl_mcan.o(.ARM.exidx.text.DL_MCAN_getOpMode) refers to dl_mcan.o(.text.DL_MCAN_getOpMode) for [Anonymous Symbol]
    dl_mcan.o(.ARM.exidx.text.DL_MCAN_init) refers to dl_mcan.o(.text.DL_MCAN_init) for [Anonymous Symbol]
    dl_mcan.o(.ARM.exidx.text.DL_MCAN_config) refers to dl_mcan.o(.text.DL_MCAN_config) for [Anonymous Symbol]
    dl_mcan.o(.ARM.exidx.text.DL_MCAN_eccConfig) refers to dl_mcan.o(.text.DL_MCAN_eccConfig) for [Anonymous Symbol]
    dl_mcan.o(.ARM.exidx.text.DL_MCAN_setBitTime) refers to dl_mcan.o(.text.DL_MCAN_setBitTime) for [Anonymous Symbol]
    dl_mcan.o(.ARM.exidx.text.DL_MCAN_msgRAMConfig) refers to dl_mcan.o(.text.DL_MCAN_msgRAMConfig) for [Anonymous Symbol]
    dl_mcan.o(.ARM.exidx.text.DL_MCAN_setExtIDAndMask) refers to dl_mcan.o(.text.DL_MCAN_setExtIDAndMask) for [Anonymous Symbol]
    dl_mcan.o(.text.DL_MCAN_writeMsgRam) refers to dl_mcan.o(.rodata.cst32) for [Anonymous Symbol]
    dl_mcan.o(.text.DL_MCAN_writeMsgRam) refers to dl_mcan.o(.rodata..L__const.DL_MCAN_getDataSize.dataSize) for [Anonymous Symbol]
    dl_mcan.o(.ARM.exidx.text.DL_MCAN_writeMsgRam) refers to dl_mcan.o(.text.DL_MCAN_writeMsgRam) for [Anonymous Symbol]
    dl_mcan.o(.ARM.exidx.text.DL_MCAN_TXBufAddReq) refers to dl_mcan.o(.text.DL_MCAN_TXBufAddReq) for [Anonymous Symbol]
    dl_mcan.o(.ARM.exidx.text.DL_MCAN_getNewDataStatus) refers to dl_mcan.o(.text.DL_MCAN_getNewDataStatus) for [Anonymous Symbol]
    dl_mcan.o(.ARM.exidx.text.DL_MCAN_clearNewDataStatus) refers to dl_mcan.o(.text.DL_MCAN_clearNewDataStatus) for [Anonymous Symbol]
    dl_mcan.o(.text.DL_MCAN_readMsgRam) refers to dl_mcan.o(.rodata.cst32) for [Anonymous Symbol]
    dl_mcan.o(.text.DL_MCAN_readMsgRam) refers to dl_mcan.o(.rodata..L__const.DL_MCAN_getDataSize.dataSize) for [Anonymous Symbol]
    dl_mcan.o(.ARM.exidx.text.DL_MCAN_readMsgRam) refers to dl_mcan.o(.text.DL_MCAN_readMsgRam) for [Anonymous Symbol]
    dl_mcan.o(.ARM.exidx.text.DL_MCAN_readTxEventFIFO) refers to dl_mcan.o(.text.DL_MCAN_readTxEventFIFO) for [Anonymous Symbol]
    dl_mcan.o(.ARM.exidx.text.DL_MCAN_addStdMsgIDFilter) refers to dl_mcan.o(.text.DL_MCAN_addStdMsgIDFilter) for [Anonymous Symbol]
    dl_mcan.o(.ARM.exidx.text.DL_MCAN_addExtMsgIDFilter) refers to dl_mcan.o(.text.DL_MCAN_addExtMsgIDFilter) for [Anonymous Symbol]
    dl_mcan.o(.ARM.exidx.text.DL_MCAN_lpbkModeEnable) refers to dl_mcan.o(.text.DL_MCAN_lpbkModeEnable) for [Anonymous Symbol]
    dl_mcan.o(.ARM.exidx.text.DL_MCAN_getErrCounters) refers to dl_mcan.o(.text.DL_MCAN_getErrCounters) for [Anonymous Symbol]
    dl_mcan.o(.ARM.exidx.text.DL_MCAN_getProtocolStatus) refers to dl_mcan.o(.text.DL_MCAN_getProtocolStatus) for [Anonymous Symbol]
    dl_mcan.o(.ARM.exidx.text.DL_MCAN_enableIntr) refers to dl_mcan.o(.text.DL_MCAN_enableIntr) for [Anonymous Symbol]
    dl_mcan.o(.ARM.exidx.text.DL_MCAN_selectIntrLine) refers to dl_mcan.o(.text.DL_MCAN_selectIntrLine) for [Anonymous Symbol]
    dl_mcan.o(.ARM.exidx.text.DL_MCAN_getIntrLineSelectStatus) refers to dl_mcan.o(.text.DL_MCAN_getIntrLineSelectStatus) for [Anonymous Symbol]
    dl_mcan.o(.ARM.exidx.text.DL_MCAN_enableIntrLine) refers to dl_mcan.o(.text.DL_MCAN_enableIntrLine) for [Anonymous Symbol]
    dl_mcan.o(.ARM.exidx.text.DL_MCAN_getIntrStatus) refers to dl_mcan.o(.text.DL_MCAN_getIntrStatus) for [Anonymous Symbol]
    dl_mcan.o(.ARM.exidx.text.DL_MCAN_clearIntrStatus) refers to dl_mcan.o(.text.DL_MCAN_clearIntrStatus) for [Anonymous Symbol]
    dl_mcan.o(.ARM.exidx.text.DL_MCAN_getHighPriorityMsgStatus) refers to dl_mcan.o(.text.DL_MCAN_getHighPriorityMsgStatus) for [Anonymous Symbol]
    dl_mcan.o(.ARM.exidx.text.DL_MCAN_getRxFIFOStatus) refers to dl_mcan.o(.text.DL_MCAN_getRxFIFOStatus) for [Anonymous Symbol]
    dl_mcan.o(.ARM.exidx.text.DL_MCAN_writeRxFIFOAck) refers to dl_mcan.o(.text.DL_MCAN_writeRxFIFOAck) for [Anonymous Symbol]
    dl_mcan.o(.ARM.exidx.text.DL_MCAN_getTxFIFOQueStatus) refers to dl_mcan.o(.text.DL_MCAN_getTxFIFOQueStatus) for [Anonymous Symbol]
    dl_mcan.o(.ARM.exidx.text.DL_MCAN_getTxBufReqPend) refers to dl_mcan.o(.text.DL_MCAN_getTxBufReqPend) for [Anonymous Symbol]
    dl_mcan.o(.ARM.exidx.text.DL_MCAN_txBufCancellationReq) refers to dl_mcan.o(.text.DL_MCAN_txBufCancellationReq) for [Anonymous Symbol]
    dl_mcan.o(.ARM.exidx.text.DL_MCAN_getTxBufTransmissionStatus) refers to dl_mcan.o(.text.DL_MCAN_getTxBufTransmissionStatus) for [Anonymous Symbol]
    dl_mcan.o(.ARM.exidx.text.DL_MCAN_txBufCancellationStatus) refers to dl_mcan.o(.text.DL_MCAN_txBufCancellationStatus) for [Anonymous Symbol]
    dl_mcan.o(.ARM.exidx.text.DL_MCAN_TXBufTransIntrEnable) refers to dl_mcan.o(.text.DL_MCAN_TXBufTransIntrEnable) for [Anonymous Symbol]
    dl_mcan.o(.ARM.exidx.text.DL_MCAN_getTxBufCancellationIntrEnable) refers to dl_mcan.o(.text.DL_MCAN_getTxBufCancellationIntrEnable) for [Anonymous Symbol]
    dl_mcan.o(.ARM.exidx.text.DL_MCAN_getTxEventFIFOStatus) refers to dl_mcan.o(.text.DL_MCAN_getTxEventFIFOStatus) for [Anonymous Symbol]
    dl_mcan.o(.ARM.exidx.text.DL_MCAN_addClockStopRequest) refers to dl_mcan.o(.text.DL_MCAN_addClockStopRequest) for [Anonymous Symbol]
    dl_mcan.o(.ARM.exidx.text.DL_MCAN_writeTxEventFIFOAck) refers to dl_mcan.o(.text.DL_MCAN_writeTxEventFIFOAck) for [Anonymous Symbol]
    dl_mcan.o(.ARM.exidx.text.DL_MCAN_eccForceError) refers to dl_mcan.o(.text.DL_MCAN_eccForceError) for [Anonymous Symbol]
    dl_mcan.o(.ARM.exidx.text.DL_MCAN_eccGetErrorStatus) refers to dl_mcan.o(.text.DL_MCAN_eccGetErrorStatus) for [Anonymous Symbol]
    dl_mcan.o(.ARM.exidx.text.DL_MCAN_eccClearErrorStatus) refers to dl_mcan.o(.text.DL_MCAN_eccClearErrorStatus) for [Anonymous Symbol]
    dl_mcan.o(.ARM.exidx.text.DL_MCAN_eccWriteEOI) refers to dl_mcan.o(.text.DL_MCAN_eccWriteEOI) for [Anonymous Symbol]
    dl_mcan.o(.ARM.exidx.text.DL_MCAN_eccEnableIntr) refers to dl_mcan.o(.text.DL_MCAN_eccEnableIntr) for [Anonymous Symbol]
    dl_mcan.o(.ARM.exidx.text.DL_MCAN_eccGetIntrStatus) refers to dl_mcan.o(.text.DL_MCAN_eccGetIntrStatus) for [Anonymous Symbol]
    dl_mcan.o(.ARM.exidx.text.DL_MCAN_eccClearIntrStatus) refers to dl_mcan.o(.text.DL_MCAN_eccClearIntrStatus) for [Anonymous Symbol]
    dl_mcan.o(.ARM.exidx.text.DL_MCAN_extTSCounterConfig) refers to dl_mcan.o(.text.DL_MCAN_extTSCounterConfig) for [Anonymous Symbol]
    dl_mcan.o(.ARM.exidx.text.DL_MCAN_extTSCounterEnable) refers to dl_mcan.o(.text.DL_MCAN_extTSCounterEnable) for [Anonymous Symbol]
    dl_mcan.o(.ARM.exidx.text.DL_MCAN_extTSEnableIntr) refers to dl_mcan.o(.text.DL_MCAN_extTSEnableIntr) for [Anonymous Symbol]
    dl_mcan.o(.ARM.exidx.text.DL_MCAN_extTSWriteEOI) refers to dl_mcan.o(.text.DL_MCAN_extTSWriteEOI) for [Anonymous Symbol]
    dl_mcan.o(.ARM.exidx.text.DL_MCAN_extTSGetUnservicedIntrCount) refers to dl_mcan.o(.text.DL_MCAN_extTSGetUnservicedIntrCount) for [Anonymous Symbol]
    dl_mcan.o(.ARM.exidx.text.DL_MCAN_getRevisionId) refers to dl_mcan.o(.text.DL_MCAN_getRevisionId) for [Anonymous Symbol]
    dl_mcan.o(.ARM.exidx.text.DL_MCAN_getClockStopAck) refers to dl_mcan.o(.text.DL_MCAN_getClockStopAck) for [Anonymous Symbol]
    dl_mcan.o(.ARM.exidx.text.DL_MCAN_extTSSetRawStatus) refers to dl_mcan.o(.text.DL_MCAN_extTSSetRawStatus) for [Anonymous Symbol]
    dl_mcan.o(.ARM.exidx.text.DL_MCAN_extTSClearRawStatus) refers to dl_mcan.o(.text.DL_MCAN_extTSClearRawStatus) for [Anonymous Symbol]
    dl_mcan.o(.ARM.exidx.text.DL_MCAN_getRxPinState) refers to dl_mcan.o(.text.DL_MCAN_getRxPinState) for [Anonymous Symbol]
    dl_mcan.o(.ARM.exidx.text.DL_MCAN_setTxPinState) refers to dl_mcan.o(.text.DL_MCAN_setTxPinState) for [Anonymous Symbol]
    dl_mcan.o(.ARM.exidx.text.DL_MCAN_getTxPinState) refers to dl_mcan.o(.text.DL_MCAN_getTxPinState) for [Anonymous Symbol]
    dl_mcan.o(.ARM.exidx.text.DL_MCAN_getTSCounterVal) refers to dl_mcan.o(.text.DL_MCAN_getTSCounterVal) for [Anonymous Symbol]
    dl_mcan.o(.ARM.exidx.text.DL_MCAN_getClkStopAck) refers to dl_mcan.o(.text.DL_MCAN_getClkStopAck) for [Anonymous Symbol]
    dl_mcan.o(.ARM.exidx.text.DL_MCAN_getBitTime) refers to dl_mcan.o(.text.DL_MCAN_getBitTime) for [Anonymous Symbol]
    dl_mcan.o(.ARM.exidx.text.DL_MCAN_resetTSCounter) refers to dl_mcan.o(.text.DL_MCAN_resetTSCounter) for [Anonymous Symbol]
    dl_mcan.o(.ARM.exidx.text.DL_MCAN_getTOCounterVal) refers to dl_mcan.o(.text.DL_MCAN_getTOCounterVal) for [Anonymous Symbol]
    dl_mcan.o(.ARM.exidx.text.DL_MCAN_eccAggrGetRevisionId) refers to dl_mcan.o(.text.DL_MCAN_eccAggrGetRevisionId) for [Anonymous Symbol]
    dl_mcan.o(.ARM.exidx.text.DL_MCAN_eccWrapGetRevisionId) refers to dl_mcan.o(.text.DL_MCAN_eccWrapGetRevisionId) for [Anonymous Symbol]
    dl_mcan.o(.ARM.exidx.text.DL_MCAN_extTSIsIntrEnable) refers to dl_mcan.o(.text.DL_MCAN_extTSIsIntrEnable) for [Anonymous Symbol]
    dl_mcan.o(.ARM.exidx.text.DL_MCAN_getEndianVal) refers to dl_mcan.o(.text.DL_MCAN_getEndianVal) for [Anonymous Symbol]
    dl_mcan.o(.ARM.exidx.text.DL_MCAN_getExtIDANDMask) refers to dl_mcan.o(.text.DL_MCAN_getExtIDANDMask) for [Anonymous Symbol]
    dl_mcan.o(.ARM.exidx.text.DL_MCAN_saveConfiguration) refers to dl_mcan.o(.text.DL_MCAN_saveConfiguration) for [Anonymous Symbol]
    dl_mcan.o(.ARM.exidx.text.DL_MCAN_restoreConfiguration) refers to dl_mcan.o(.text.DL_MCAN_restoreConfiguration) for [Anonymous Symbol]
    dl_opa.o(.ARM.exidx.text.DL_OPA_increaseGain) refers to dl_opa.o(.text.DL_OPA_increaseGain) for [Anonymous Symbol]
    dl_opa.o(.ARM.exidx.text.DL_OPA_decreaseGain) refers to dl_opa.o(.text.DL_OPA_decreaseGain) for [Anonymous Symbol]
    dl_rtc.o(.ARM.exidx.text.DL_RTC_initCalendar) refers to dl_rtc.o(.text.DL_RTC_initCalendar) for [Anonymous Symbol]
    dl_rtc.o(.ARM.exidx.text.DL_RTC_getCalendarTime) refers to dl_rtc.o(.text.DL_RTC_getCalendarTime) for [Anonymous Symbol]
    dl_rtc.o(.ARM.exidx.text.DL_RTC_setCalendarAlarm1) refers to dl_rtc.o(.text.DL_RTC_setCalendarAlarm1) for [Anonymous Symbol]
    dl_rtc.o(.ARM.exidx.text.DL_RTC_getCalendarAlarm1) refers to dl_rtc.o(.text.DL_RTC_getCalendarAlarm1) for [Anonymous Symbol]
    dl_rtc.o(.ARM.exidx.text.DL_RTC_enableCalendarAlarm1) refers to dl_rtc.o(.text.DL_RTC_enableCalendarAlarm1) for [Anonymous Symbol]
    dl_rtc.o(.ARM.exidx.text.DL_RTC_disableCalendarAlarm1) refers to dl_rtc.o(.text.DL_RTC_disableCalendarAlarm1) for [Anonymous Symbol]
    dl_rtc.o(.ARM.exidx.text.DL_RTC_setCalendarAlarm2) refers to dl_rtc.o(.text.DL_RTC_setCalendarAlarm2) for [Anonymous Symbol]
    dl_rtc.o(.ARM.exidx.text.DL_RTC_getCalendarAlarm2) refers to dl_rtc.o(.text.DL_RTC_getCalendarAlarm2) for [Anonymous Symbol]
    dl_rtc.o(.ARM.exidx.text.DL_RTC_enableCalendarAlarm2) refers to dl_rtc.o(.text.DL_RTC_enableCalendarAlarm2) for [Anonymous Symbol]
    dl_rtc.o(.ARM.exidx.text.DL_RTC_disableCalendarAlarm2) refers to dl_rtc.o(.text.DL_RTC_disableCalendarAlarm2) for [Anonymous Symbol]
    dl_spi.o(.ARM.exidx.text.DL_SPI_init) refers to dl_spi.o(.text.DL_SPI_init) for [Anonymous Symbol]
    dl_spi.o(.ARM.exidx.text.DL_SPI_setClockConfig) refers to dl_spi.o(.text.DL_SPI_setClockConfig) for [Anonymous Symbol]
    dl_spi.o(.ARM.exidx.text.DL_SPI_getClockConfig) refers to dl_spi.o(.text.DL_SPI_getClockConfig) for [Anonymous Symbol]
    dl_spi.o(.ARM.exidx.text.DL_SPI_receiveDataBlocking8) refers to dl_spi.o(.text.DL_SPI_receiveDataBlocking8) for [Anonymous Symbol]
    dl_spi.o(.ARM.exidx.text.DL_SPI_receiveDataBlocking16) refers to dl_spi.o(.text.DL_SPI_receiveDataBlocking16) for [Anonymous Symbol]
    dl_spi.o(.ARM.exidx.text.DL_SPI_receiveDataBlocking32) refers to dl_spi.o(.text.DL_SPI_receiveDataBlocking32) for [Anonymous Symbol]
    dl_spi.o(.ARM.exidx.text.DL_SPI_transmitDataBlocking8) refers to dl_spi.o(.text.DL_SPI_transmitDataBlocking8) for [Anonymous Symbol]
    dl_spi.o(.ARM.exidx.text.DL_SPI_transmitDataBlocking16) refers to dl_spi.o(.text.DL_SPI_transmitDataBlocking16) for [Anonymous Symbol]
    dl_spi.o(.ARM.exidx.text.DL_SPI_transmitDataBlocking32) refers to dl_spi.o(.text.DL_SPI_transmitDataBlocking32) for [Anonymous Symbol]
    dl_spi.o(.ARM.exidx.text.DL_SPI_receiveDataCheck8) refers to dl_spi.o(.text.DL_SPI_receiveDataCheck8) for [Anonymous Symbol]
    dl_spi.o(.ARM.exidx.text.DL_SPI_receiveDataCheck16) refers to dl_spi.o(.text.DL_SPI_receiveDataCheck16) for [Anonymous Symbol]
    dl_spi.o(.ARM.exidx.text.DL_SPI_receiveDataCheck32) refers to dl_spi.o(.text.DL_SPI_receiveDataCheck32) for [Anonymous Symbol]
    dl_spi.o(.ARM.exidx.text.DL_SPI_transmitDataCheck8) refers to dl_spi.o(.text.DL_SPI_transmitDataCheck8) for [Anonymous Symbol]
    dl_spi.o(.ARM.exidx.text.DL_SPI_transmitDataCheck16) refers to dl_spi.o(.text.DL_SPI_transmitDataCheck16) for [Anonymous Symbol]
    dl_spi.o(.ARM.exidx.text.DL_SPI_transmitDataCheck32) refers to dl_spi.o(.text.DL_SPI_transmitDataCheck32) for [Anonymous Symbol]
    dl_spi.o(.ARM.exidx.text.DL_SPI_drainRXFIFO8) refers to dl_spi.o(.text.DL_SPI_drainRXFIFO8) for [Anonymous Symbol]
    dl_spi.o(.ARM.exidx.text.DL_SPI_drainRXFIFO16) refers to dl_spi.o(.text.DL_SPI_drainRXFIFO16) for [Anonymous Symbol]
    dl_spi.o(.ARM.exidx.text.DL_SPI_drainRXFIFO32) refers to dl_spi.o(.text.DL_SPI_drainRXFIFO32) for [Anonymous Symbol]
    dl_spi.o(.ARM.exidx.text.DL_SPI_fillTXFIFO8) refers to dl_spi.o(.text.DL_SPI_fillTXFIFO8) for [Anonymous Symbol]
    dl_spi.o(.ARM.exidx.text.DL_SPI_fillTXFIFO16) refers to dl_spi.o(.text.DL_SPI_fillTXFIFO16) for [Anonymous Symbol]
    dl_spi.o(.ARM.exidx.text.DL_SPI_saveConfiguration) refers to dl_spi.o(.text.DL_SPI_saveConfiguration) for [Anonymous Symbol]
    dl_spi.o(.ARM.exidx.text.DL_SPI_restoreConfiguration) refers to dl_spi.o(.text.DL_SPI_restoreConfiguration) for [Anonymous Symbol]
    dl_spi.o(.ARM.exidx.text.DL_SPI_fillTXFIFO32) refers to dl_spi.o(.text.DL_SPI_fillTXFIFO32) for [Anonymous Symbol]
    dl_timer.o(.ARM.exidx.text.DL_Timer_setClockConfig) refers to dl_timer.o(.text.DL_Timer_setClockConfig) for [Anonymous Symbol]
    dl_timer.o(.ARM.exidx.text.DL_Timer_getClockConfig) refers to dl_timer.o(.text.DL_Timer_getClockConfig) for [Anonymous Symbol]
    dl_timer.o(.ARM.exidx.text.DL_Timer_initTimerMode) refers to dl_timer.o(.text.DL_Timer_initTimerMode) for [Anonymous Symbol]
    dl_timer.o(.ARM.exidx.text.DL_Timer_setCaptureCompareValue) refers to dl_timer.o(.text.DL_Timer_setCaptureCompareValue) for [Anonymous Symbol]
    dl_timer.o(.ARM.exidx.text.DL_Timer_setCaptureCompareCtl) refers to dl_timer.o(.text.DL_Timer_setCaptureCompareCtl) for [Anonymous Symbol]
    dl_timer.o(.text.DL_Timer_initCaptureMode) refers to dl_timer.o(.rodata..Lswitch.table.DL_Timer_initCompareMode) for [Anonymous Symbol]
    dl_timer.o(.ARM.exidx.text.DL_Timer_initCaptureMode) refers to dl_timer.o(.text.DL_Timer_initCaptureMode) for [Anonymous Symbol]
    dl_timer.o(.ARM.exidx.text.DL_Timer_setCaptureCompareInput) refers to dl_timer.o(.text.DL_Timer_setCaptureCompareInput) for [Anonymous Symbol]
    dl_timer.o(.ARM.exidx.text.DL_Timer_initCaptureTriggerMode) refers to dl_timer.o(.text.DL_Timer_initCaptureTriggerMode) for [Anonymous Symbol]
    dl_timer.o(.text.DL_Timer_initCaptureCombinedMode) refers to dl_timer.o(.rodata..Lswitch.table.DL_Timer_initCompareMode) for [Anonymous Symbol]
    dl_timer.o(.ARM.exidx.text.DL_Timer_initCaptureCombinedMode) refers to dl_timer.o(.text.DL_Timer_initCaptureCombinedMode) for [Anonymous Symbol]
    dl_timer.o(.text.DL_Timer_initCompareMode) refers to dl_timer.o(.rodata..Lswitch.table.DL_Timer_initCompareMode) for [Anonymous Symbol]
    dl_timer.o(.ARM.exidx.text.DL_Timer_initCompareMode) refers to dl_timer.o(.text.DL_Timer_initCompareMode) for [Anonymous Symbol]
    dl_timer.o(.ARM.exidx.text.DL_Timer_initCompareTriggerMode) refers to dl_timer.o(.text.DL_Timer_initCompareTriggerMode) for [Anonymous Symbol]
    dl_timer.o(.ARM.exidx.text.DL_Timer_initPWMMode) refers to dl_timer.o(.text.DL_Timer_initPWMMode) for [Anonymous Symbol]
    dl_timer.o(.ARM.exidx.text.DL_Timer_setCaptureCompareAction) refers to dl_timer.o(.text.DL_Timer_setCaptureCompareAction) for [Anonymous Symbol]
    dl_timer.o(.ARM.exidx.text.DL_Timer_setCaptureCompareOutCtl) refers to dl_timer.o(.text.DL_Timer_setCaptureCompareOutCtl) for [Anonymous Symbol]
    dl_timer.o(.ARM.exidx.text.DL_Timer_getCaptureCompareValue) refers to dl_timer.o(.text.DL_Timer_getCaptureCompareValue) for [Anonymous Symbol]
    dl_timer.o(.ARM.exidx.text.DL_Timer_getCaptureCompareCtl) refers to dl_timer.o(.text.DL_Timer_getCaptureCompareCtl) for [Anonymous Symbol]
    dl_timer.o(.ARM.exidx.text.DL_Timer_enableSuppressionOfCompEvent) refers to dl_timer.o(.text.DL_Timer_enableSuppressionOfCompEvent) for [Anonymous Symbol]
    dl_timer.o(.ARM.exidx.text.DL_Timer_disableSuppressionOfCompEvent) refers to dl_timer.o(.text.DL_Timer_disableSuppressionOfCompEvent) for [Anonymous Symbol]
    dl_timer.o(.ARM.exidx.text.DL_Timer_setCaptCompUpdateMethod) refers to dl_timer.o(.text.DL_Timer_setCaptCompUpdateMethod) for [Anonymous Symbol]
    dl_timer.o(.ARM.exidx.text.DL_Timer_getCaptCompUpdateMethod) refers to dl_timer.o(.text.DL_Timer_getCaptCompUpdateMethod) for [Anonymous Symbol]
    dl_timer.o(.ARM.exidx.text.DL_Timer_getCaptureCompareOutCtl) refers to dl_timer.o(.text.DL_Timer_getCaptureCompareOutCtl) for [Anonymous Symbol]
    dl_timer.o(.ARM.exidx.text.DL_Timer_getCaptureCompareAction) refers to dl_timer.o(.text.DL_Timer_getCaptureCompareAction) for [Anonymous Symbol]
    dl_timer.o(.ARM.exidx.text.DL_Timer_overrideCCPOut) refers to dl_timer.o(.text.DL_Timer_overrideCCPOut) for [Anonymous Symbol]
    dl_timer.o(.ARM.exidx.text.DL_Timer_getCaptureCompareInput) refers to dl_timer.o(.text.DL_Timer_getCaptureCompareInput) for [Anonymous Symbol]
    dl_timer.o(.ARM.exidx.text.DL_Timer_setCaptureCompareInputFilter) refers to dl_timer.o(.text.DL_Timer_setCaptureCompareInputFilter) for [Anonymous Symbol]
    dl_timer.o(.ARM.exidx.text.DL_Timer_getCaptureCompareInputFilter) refers to dl_timer.o(.text.DL_Timer_getCaptureCompareInputFilter) for [Anonymous Symbol]
    dl_timer.o(.ARM.exidx.text.DL_Timer_enableCaptureCompareInputFilter) refers to dl_timer.o(.text.DL_Timer_enableCaptureCompareInputFilter) for [Anonymous Symbol]
    dl_timer.o(.ARM.exidx.text.DL_Timer_disableCaptureCompareInputFilter) refers to dl_timer.o(.text.DL_Timer_disableCaptureCompareInputFilter) for [Anonymous Symbol]
    dl_timer.o(.ARM.exidx.text.DL_Timer_isCaptureCompareInputFilterEnabled) refers to dl_timer.o(.text.DL_Timer_isCaptureCompareInputFilterEnabled) for [Anonymous Symbol]
    dl_timer.o(.ARM.exidx.text.DL_Timer_saveConfiguration) refers to dl_timer.o(.text.DL_Timer_saveConfiguration) for [Anonymous Symbol]
    dl_timer.o(.ARM.exidx.text.DL_Timer_restoreConfiguration) refers to dl_timer.o(.text.DL_Timer_restoreConfiguration) for [Anonymous Symbol]
    dl_timer.o(.text.DL_TimerA_initPWMMode) refers to dl_timer.o(.text.DL_Timer_initPWMMode) for DL_Timer_initPWMMode
    dl_timer.o(.ARM.exidx.text.DL_TimerA_initPWMMode) refers to dl_timer.o(.text.DL_TimerA_initPWMMode) for [Anonymous Symbol]
    dl_timer.o(.ARM.exidx.text.DL_Timer_setFaultSourceConfig) refers to dl_timer.o(.text.DL_Timer_setFaultSourceConfig) for [Anonymous Symbol]
    dl_timer.o(.ARM.exidx.text.DL_Timer_getFaultSourceConfig) refers to dl_timer.o(.text.DL_Timer_getFaultSourceConfig) for [Anonymous Symbol]
    dl_timer.o(.ARM.exidx.text.DL_TimerA_saveConfiguration) refers to dl_timer.o(.text.DL_TimerA_saveConfiguration) for [Anonymous Symbol]
    dl_timer.o(.ARM.exidx.text.DL_TimerA_restoreConfiguration) refers to dl_timer.o(.text.DL_TimerA_restoreConfiguration) for [Anonymous Symbol]
    dl_timer.o(.ARM.exidx.text.DL_Timer_configQEIHallInputMode) refers to dl_timer.o(.text.DL_Timer_configQEIHallInputMode) for [Anonymous Symbol]
    dl_trng.o(.ARM.exidx.text.DL_TRNG_saveConfiguration) refers to dl_trng.o(.text.DL_TRNG_saveConfiguration) for [Anonymous Symbol]
    dl_trng.o(.ARM.exidx.text.DL_TRNG_restoreConfiguration) refers to dl_trng.o(.text.DL_TRNG_restoreConfiguration) for [Anonymous Symbol]
    dl_uart.o(.ARM.exidx.text.DL_UART_init) refers to dl_uart.o(.text.DL_UART_init) for [Anonymous Symbol]
    dl_uart.o(.ARM.exidx.text.DL_UART_setClockConfig) refers to dl_uart.o(.text.DL_UART_setClockConfig) for [Anonymous Symbol]
    dl_uart.o(.ARM.exidx.text.DL_UART_getClockConfig) refers to dl_uart.o(.text.DL_UART_getClockConfig) for [Anonymous Symbol]
    dl_uart.o(.text.DL_UART_configBaudRate) refers to aeabi_sdivfast.o(.text_divfast) for __aeabi_uidiv
    dl_uart.o(.ARM.exidx.text.DL_UART_configBaudRate) refers to dl_uart.o(.text.DL_UART_configBaudRate) for [Anonymous Symbol]
    dl_uart.o(.ARM.exidx.text.DL_UART_configIrDAMode) refers to dl_uart.o(.text.DL_UART_configIrDAMode) for [Anonymous Symbol]
    dl_uart.o(.ARM.exidx.text.DL_UART_setIrDAPulseLength) refers to dl_uart.o(.text.DL_UART_setIrDAPulseLength) for [Anonymous Symbol]
    dl_uart.o(.ARM.exidx.text.DL_UART_receiveDataBlocking) refers to dl_uart.o(.text.DL_UART_receiveDataBlocking) for [Anonymous Symbol]
    dl_uart.o(.ARM.exidx.text.DL_UART_transmitDataBlocking) refers to dl_uart.o(.text.DL_UART_transmitDataBlocking) for [Anonymous Symbol]
    dl_uart.o(.ARM.exidx.text.DL_UART_receiveDataCheck) refers to dl_uart.o(.text.DL_UART_receiveDataCheck) for [Anonymous Symbol]
    dl_uart.o(.ARM.exidx.text.DL_UART_transmitDataCheck) refers to dl_uart.o(.text.DL_UART_transmitDataCheck) for [Anonymous Symbol]
    dl_uart.o(.ARM.exidx.text.DL_UART_drainRXFIFO) refers to dl_uart.o(.text.DL_UART_drainRXFIFO) for [Anonymous Symbol]
    dl_uart.o(.ARM.exidx.text.DL_UART_fillTXFIFO) refers to dl_uart.o(.text.DL_UART_fillTXFIFO) for [Anonymous Symbol]
    dl_uart.o(.ARM.exidx.text.DL_UART_Main_saveConfiguration) refers to dl_uart.o(.text.DL_UART_Main_saveConfiguration) for [Anonymous Symbol]
    dl_uart.o(.ARM.exidx.text.DL_UART_Main_restoreConfiguration) refers to dl_uart.o(.text.DL_UART_Main_restoreConfiguration) for [Anonymous Symbol]
    dl_uart.o(.ARM.exidx.text.DL_UART_Extend_saveConfiguration) refers to dl_uart.o(.text.DL_UART_Extend_saveConfiguration) for [Anonymous Symbol]
    dl_uart.o(.ARM.exidx.text.DL_UART_Extend_restoreConfiguration) refers to dl_uart.o(.text.DL_UART_Extend_restoreConfiguration) for [Anonymous Symbol]
    dl_vref.o(.ARM.exidx.text.DL_VREF_configReference) refers to dl_vref.o(.text.DL_VREF_configReference) for [Anonymous Symbol]
    dl_vref.o(.ARM.exidx.text.DL_VREF_setClockConfig) refers to dl_vref.o(.text.DL_VREF_setClockConfig) for [Anonymous Symbol]
    dl_vref.o(.ARM.exidx.text.DL_VREF_getClockConfig) refers to dl_vref.o(.text.DL_VREF_getClockConfig) for [Anonymous Symbol]
    dl_interrupt.o(.text.DL_Interrupt_registerInterrupt) refers to dl_interrupt.o(.vtable) for [Anonymous Symbol]
    dl_interrupt.o(.ARM.exidx.text.DL_Interrupt_registerInterrupt) refers to dl_interrupt.o(.text.DL_Interrupt_registerInterrupt) for [Anonymous Symbol]
    dl_interrupt.o(.text.DL_Interrupt_unregisterInterrupt) refers to dl_interrupt.o(.vtable) for [Anonymous Symbol]
    dl_interrupt.o(.text.DL_Interrupt_unregisterInterrupt) refers to startup_mspm0g3507_uvision.o(.text) for Default_Handler
    dl_interrupt.o(.ARM.exidx.text.DL_Interrupt_unregisterInterrupt) refers to dl_interrupt.o(.text.DL_Interrupt_unregisterInterrupt) for [Anonymous Symbol]
    dl_sysctl_mspm0g1x0x_g3x0x.o(.ARM.exidx.text.DL_SYSCTL_configSYSPLL) refers to dl_sysctl_mspm0g1x0x_g3x0x.o(.text.DL_SYSCTL_configSYSPLL) for [Anonymous Symbol]
    dl_sysctl_mspm0g1x0x_g3x0x.o(.ARM.exidx.text.DL_SYSCTL_setLFCLKSourceLFXT) refers to dl_sysctl_mspm0g1x0x_g3x0x.o(.text.DL_SYSCTL_setLFCLKSourceLFXT) for [Anonymous Symbol]
    dl_sysctl_mspm0g1x0x_g3x0x.o(.ARM.exidx.text.DL_SYSCTL_switchMCLKfromSYSOSCtoLFCLK) refers to dl_sysctl_mspm0g1x0x_g3x0x.o(.text.DL_SYSCTL_switchMCLKfromSYSOSCtoLFCLK) for [Anonymous Symbol]
    dl_sysctl_mspm0g1x0x_g3x0x.o(.ARM.exidx.text.DL_SYSCTL_switchMCLKfromLFCLKtoSYSOSC) refers to dl_sysctl_mspm0g1x0x_g3x0x.o(.text.DL_SYSCTL_switchMCLKfromLFCLKtoSYSOSC) for [Anonymous Symbol]
    dl_sysctl_mspm0g1x0x_g3x0x.o(.ARM.exidx.text.DL_SYSCTL_switchMCLKfromSYSOSCtoHSCLK) refers to dl_sysctl_mspm0g1x0x_g3x0x.o(.text.DL_SYSCTL_switchMCLKfromSYSOSCtoHSCLK) for [Anonymous Symbol]
    dl_sysctl_mspm0g1x0x_g3x0x.o(.ARM.exidx.text.DL_SYSCTL_switchMCLKfromHSCLKtoSYSOSC) refers to dl_sysctl_mspm0g1x0x_g3x0x.o(.text.DL_SYSCTL_switchMCLKfromHSCLKtoSYSOSC) for [Anonymous Symbol]
    dl_sysctl_mspm0g1x0x_g3x0x.o(.ARM.exidx.text.DL_SYSCTL_setHFCLKSourceHFXT) refers to dl_sysctl_mspm0g1x0x_g3x0x.o(.text.DL_SYSCTL_setHFCLKSourceHFXT) for [Anonymous Symbol]
    dl_sysctl_mspm0g1x0x_g3x0x.o(.ARM.exidx.text.DL_SYSCTL_setHFCLKSourceHFXTParams) refers to dl_sysctl_mspm0g1x0x_g3x0x.o(.text.DL_SYSCTL_setHFCLKSourceHFXTParams) for [Anonymous Symbol]
    dl_sysctl_mspm0g1x0x_g3x0x.o(.ARM.exidx.text.DL_SYSCTL_configFCC) refers to dl_sysctl_mspm0g1x0x_g3x0x.o(.text.DL_SYSCTL_configFCC) for [Anonymous Symbol]
    dl_sysctl_mspm0g1x0x_g3x0x.o(.ARM.exidx.text.DL_SYSCTL_getPowerPolicyRUNSLEEP) refers to dl_sysctl_mspm0g1x0x_g3x0x.o(.text.DL_SYSCTL_getPowerPolicyRUNSLEEP) for [Anonymous Symbol]
    dl_sysctl_mspm0g1x0x_g3x0x.o(.ARM.exidx.text.DL_SYSCTL_getPowerPolicySTOP) refers to dl_sysctl_mspm0g1x0x_g3x0x.o(.text.DL_SYSCTL_getPowerPolicySTOP) for [Anonymous Symbol]
    dl_sysctl_mspm0g1x0x_g3x0x.o(.ARM.exidx.text.DL_SYSCTL_getPowerPolicySTANDBY) refers to dl_sysctl_mspm0g1x0x_g3x0x.o(.text.DL_SYSCTL_getPowerPolicySTANDBY) for [Anonymous Symbol]
    __main.o(!!!main) refers to __rtentry.o(.ARM.Collect$$rtentry$$00000000) for __rt_entry
    d2f.o(.text) refers (Special) to usenofp.o(x$fpl$usenofp) for __I$use$fp
    daddsub.o(.text) refers (Special) to usenofp.o(x$fpl$usenofp) for __I$use$fp
    ddiv.o(.text) refers (Special) to usenofp.o(x$fpl$usenofp) for __I$use$fp
    ddiv.o(.text) refers to ddiv.o(.constdata) for .constdata
    ddiv.o(.constdata) refers (Special) to usenofp.o(x$fpl$usenofp) for __I$use$fp
    dfixi.o(.text) refers (Special) to usenofp.o(x$fpl$usenofp) for __I$use$fp
    dflti.o(.text) refers (Special) to usenofp.o(x$fpl$usenofp) for __I$use$fp
    dmul.o(.text) refers (Special) to usenofp.o(x$fpl$usenofp) for __I$use$fp
    f2d.o(.text) refers (Special) to usenofp.o(x$fpl$usenofp) for __I$use$fp
    faddsub.o(x$fpl$fadd) refers (Special) to usenofp.o(x$fpl$usenofp) for __I$use$fp
    faddsub.o(x$fpl$fadd) refers to faddsub.o(x$fpl$fsub) for _fsub1
    faddsub.o(x$fpl$frsb) refers (Special) to usenofp.o(x$fpl$usenofp) for __I$use$fp
    faddsub.o(x$fpl$frsb) refers to faddsub.o(x$fpl$fsub) for _fsub1
    faddsub.o(x$fpl$frsb) refers to faddsub.o(x$fpl$fadd) for _fadd1
    faddsub.o(x$fpl$fsub) refers (Special) to usenofp.o(x$fpl$usenofp) for __I$use$fp
    faddsub.o(x$fpl$fsub) refers to faddsub.o(x$fpl$fadd) for _fadd1
    fcmp.o(i._feq) refers (Special) to usenofp.o(x$fpl$usenofp) for __I$use$fp
    fcmp.o(i._feq) refers to feqf.o(x$fpl$feqf) for _fcmpeq
    fcmp.o(i._fgeq) refers (Special) to usenofp.o(x$fpl$usenofp) for __I$use$fp
    fcmp.o(i._fgeq) refers to fgef.o(x$fpl$fgeqf) for _fcmpge
    fcmp.o(i._fgr) refers (Special) to usenofp.o(x$fpl$usenofp) for __I$use$fp
    fcmp.o(i._fgr) refers to fgef.o(x$fpl$fgeqf) for _fcmpge
    fcmp.o(i._fleq) refers (Special) to usenofp.o(x$fpl$usenofp) for __I$use$fp
    fcmp.o(i._fleq) refers to flef.o(x$fpl$fleqf) for _fcmple
    fcmp.o(i._fls) refers (Special) to usenofp.o(x$fpl$usenofp) for __I$use$fp
    fcmp.o(i._fls) refers to flef.o(x$fpl$fleqf) for _fcmple
    fcmp.o(i._fneq) refers (Special) to usenofp.o(x$fpl$usenofp) for __I$use$fp
    fcmp.o(i._fneq) refers to feqf.o(x$fpl$feqf) for _fcmpeq
    fdiv.o(.text) refers (Special) to usenofp.o(x$fpl$usenofp) for __I$use$fp
    fdiv.o(.text) refers to fdiv.o(.constdata) for .constdata
    fdiv.o(.constdata) refers (Special) to usenofp.o(x$fpl$usenofp) for __I$use$fp
    ffixi.o(.text) refers (Special) to usenofp.o(x$fpl$usenofp) for __I$use$fp
    ffixui.o(.text) refers (Special) to usenofp.o(x$fpl$usenofp) for __I$use$fp
    fflti.o(.text) refers (Special) to usenofp.o(x$fpl$usenofp) for __I$use$fp
    fmul.o(x$fpl$fmul) refers (Special) to usenofp.o(x$fpl$usenofp) for __I$use$fp
    floor.o(i.__softfp_floor) refers (Special) to usenofp.o(x$fpl$usenofp) for __I$use$fp
    floor.o(i.__softfp_floor) refers to floor.o(i.floor) for floor
    floor.o(i.floor) refers (Special) to usenofp.o(x$fpl$usenofp) for __I$use$fp
    floor.o(i.floor) refers to daddsub.o(.text) for __aeabi_dadd
    floor.o(i.floor) refers to drlef.o(x$fpl$drleqf) for __aeabi_cdrcmple
    __rtentry.o(.ARM.Collect$$rtentry$$00000000) refers (Special) to __rtentry2.o(.ARM.Collect$$rtentry$$0000000A) for __rt_entry_li
    __rtentry.o(.ARM.Collect$$rtentry$$00000000) refers (Special) to __rtentry2.o(.ARM.Collect$$rtentry$$0000000D) for __rt_entry_main
    __rtentry.o(.ARM.Collect$$rtentry$$00000000) refers (Special) to __rtentry2.o(.ARM.Collect$$rtentry$$0000000C) for __rt_entry_postli_1
    __rtentry.o(.ARM.Collect$$rtentry$$00000000) refers (Special) to __rtentry2.o(.ARM.Collect$$rtentry$$00000009) for __rt_entry_postsh_1
    __rtentry.o(.ARM.Collect$$rtentry$$00000000) refers (Special) to __rtentry2.o(.ARM.Collect$$rtentry$$00000002) for __rt_entry_presh_1
    __rtentry.o(.ARM.Collect$$rtentry$$00000000) refers (Special) to __rtentry4.o(.ARM.Collect$$rtentry$$00000004) for __rt_entry_sh
    aeabi_idiv0_sigfpe.o(.text) refers to rt_div0.o(.text) for __rt_div0
    drlef.o(x$fpl$drleqf) refers (Special) to usenofp.o(x$fpl$usenofp) for __I$use$fp
    drlef.o(x$fpl$drleqf) refers to dcmpin.o(.text) for __fpl_dcmp_InfNaN
    feqf.o(x$fpl$feqf) refers (Special) to usenofp.o(x$fpl$usenofp) for __I$use$fp
    feqf.o(x$fpl$feqf) refers to fcmpin.o(.text) for __fpl_fcmp_InfNaN
    fgef.o(x$fpl$fgeqf) refers (Special) to usenofp.o(x$fpl$usenofp) for __I$use$fp
    fgef.o(x$fpl$fgeqf) refers to fcmpin.o(.text) for __fpl_fcmp_InfNaN
    flef.o(x$fpl$fleqf) refers (Special) to usenofp.o(x$fpl$usenofp) for __I$use$fp
    flef.o(x$fpl$fleqf) refers to fcmpin.o(.text) for __fpl_fcmp_InfNaN
    __rtentry2.o(.ARM.Collect$$rtentry$$00000008) refers to boardinit2.o(.text) for _platform_post_stackheap_init
    __rtentry2.o(.ARM.Collect$$rtentry$$0000000A) refers to libinit.o(.ARM.Collect$$libinit$$00000000) for __rt_lib_init
    __rtentry2.o(.ARM.Collect$$rtentry$$0000000B) refers to boardinit3.o(.text) for _platform_post_lib_init
    __rtentry2.o(.ARM.Collect$$rtentry$$0000000D) refers to main.o(.text.main) for main
    __rtentry2.o(.ARM.Collect$$rtentry$$0000000D) refers to exit.o(.text) for exit
    __rtentry2.o(.ARM.exidx) refers to __rtentry2.o(.ARM.Collect$$rtentry$$00000001) for .ARM.Collect$$rtentry$$00000001
    __rtentry2.o(.ARM.exidx) refers to __rtentry2.o(.ARM.Collect$$rtentry$$00000008) for .ARM.Collect$$rtentry$$00000008
    __rtentry2.o(.ARM.exidx) refers to __rtentry2.o(.ARM.Collect$$rtentry$$0000000A) for .ARM.Collect$$rtentry$$0000000A
    __rtentry2.o(.ARM.exidx) refers to __rtentry2.o(.ARM.Collect$$rtentry$$0000000B) for .ARM.Collect$$rtentry$$0000000B
    __rtentry2.o(.ARM.exidx) refers to __rtentry2.o(.ARM.Collect$$rtentry$$0000000D) for .ARM.Collect$$rtentry$$0000000D
    __rtentry4.o(.ARM.Collect$$rtentry$$00000004) refers to sys_stackheap_outer.o(.text) for __user_setup_stackheap
    __rtentry4.o(.ARM.exidx) refers to __rtentry4.o(.ARM.Collect$$rtentry$$00000004) for .ARM.Collect$$rtentry$$00000004
    rt_div0.o(.text) refers to defsig_fpe_outer.o(.text) for __rt_SIGFPE
    dcmpin.o(.text) refers (Special) to usenofp.o(x$fpl$usenofp) for __I$use$fp
    dcmpin.o(.text) refers to cmpret.o(.text) for __fpl_cmpreturn
    dcmpin.o(.text) refers to dnan2.o(.text) for __fpl_dcheck_NaN2
    fcmpin.o(.text) refers (Special) to usenofp.o(x$fpl$usenofp) for __I$use$fp
    fcmpin.o(.text) refers to cmpret.o(.text) for __fpl_cmpreturn
    fcmpin.o(.text) refers to fnan2.o(.text) for __fpl_fcheck_NaN2
    sys_stackheap_outer.o(.text) refers to libspace.o(.text) for __user_perproc_libspace
    sys_stackheap_outer.o(.text) refers to startup_mspm0g3507_uvision.o(.text) for __user_initial_stackheap
    sys_stackheap_outer.o(__vectab_stack_and_reset_area) refers to tempstk.o(.text) for __temporary_stack_top
    sys_stackheap_outer.o(__vectab_stack_and_reset_area) refers to __main.o(!!!main) for __main
    exit.o(.text) refers to rtexit.o(.ARM.Collect$$rtexit$$00000000) for __rt_exit
    defsig_fpe_outer.o(.text) refers to defsig_fpe_inner.o(.text) for __rt_SIGFPE_inner
    defsig_fpe_outer.o(.text) refers to defsig_exit.o(.text) for __sig_exit
    defsig_fpe_formal.o(.text) refers to rt_raise.o(.text) for __rt_raise
    libinit.o(.ARM.Collect$$libinit$$00000000) refers (Special) to libinit2.o(.ARM.Collect$$libinit$$00000030) for __rt_lib_init_alloca_1
    libinit.o(.ARM.Collect$$libinit$$00000000) refers (Special) to libinit2.o(.ARM.Collect$$libinit$$0000002E) for __rt_lib_init_argv_1
    libinit.o(.ARM.Collect$$libinit$$00000000) refers (Special) to libinit2.o(.ARM.Collect$$libinit$$0000001D) for __rt_lib_init_atexit_1
    libinit.o(.ARM.Collect$$libinit$$00000000) refers (Special) to libinit2.o(.ARM.Collect$$libinit$$00000023) for __rt_lib_init_clock_1
    libinit.o(.ARM.Collect$$libinit$$00000000) refers (Special) to libinit2.o(.ARM.Collect$$libinit$$00000034) for __rt_lib_init_cpp_1
    libinit.o(.ARM.Collect$$libinit$$00000000) refers (Special) to libinit2.o(.ARM.Collect$$libinit$$00000032) for __rt_lib_init_exceptions_1
    libinit.o(.ARM.Collect$$libinit$$00000000) refers (Special) to libinit2.o(.ARM.Collect$$libinit$$00000002) for __rt_lib_init_fp_1
    libinit.o(.ARM.Collect$$libinit$$00000000) refers (Special) to libinit2.o(.ARM.Collect$$libinit$$00000021) for __rt_lib_init_fp_trap_1
    libinit.o(.ARM.Collect$$libinit$$00000000) refers (Special) to libinit2.o(.ARM.Collect$$libinit$$00000025) for __rt_lib_init_getenv_1
    libinit.o(.ARM.Collect$$libinit$$00000000) refers (Special) to libinit2.o(.ARM.Collect$$libinit$$0000000C) for __rt_lib_init_heap_1
    libinit.o(.ARM.Collect$$libinit$$00000000) refers (Special) to libinit2.o(.ARM.Collect$$libinit$$00000013) for __rt_lib_init_lc_collate_1
    libinit.o(.ARM.Collect$$libinit$$00000000) refers (Special) to libinit2.o(.ARM.Collect$$libinit$$00000015) for __rt_lib_init_lc_ctype_1
    libinit.o(.ARM.Collect$$libinit$$00000000) refers (Special) to libinit2.o(.ARM.Collect$$libinit$$00000017) for __rt_lib_init_lc_monetary_1
    libinit.o(.ARM.Collect$$libinit$$00000000) refers (Special) to libinit2.o(.ARM.Collect$$libinit$$00000019) for __rt_lib_init_lc_numeric_1
    libinit.o(.ARM.Collect$$libinit$$00000000) refers (Special) to libinit2.o(.ARM.Collect$$libinit$$0000001B) for __rt_lib_init_lc_time_1
    libinit.o(.ARM.Collect$$libinit$$00000000) refers (Special) to libinit2.o(.ARM.Collect$$libinit$$00000006) for __rt_lib_init_preinit_1
    libinit.o(.ARM.Collect$$libinit$$00000000) refers (Special) to libinit2.o(.ARM.Collect$$libinit$$00000010) for __rt_lib_init_rand_1
    libinit.o(.ARM.Collect$$libinit$$00000000) refers (Special) to libinit2.o(.ARM.Collect$$libinit$$00000004) for __rt_lib_init_relocate_pie_1
    libinit.o(.ARM.Collect$$libinit$$00000000) refers (Special) to libinit2.o(.ARM.Collect$$libinit$$00000035) for __rt_lib_init_return
    libinit.o(.ARM.Collect$$libinit$$00000000) refers (Special) to libinit2.o(.ARM.Collect$$libinit$$0000001F) for __rt_lib_init_signal_1
    libinit.o(.ARM.Collect$$libinit$$00000000) refers (Special) to libinit2.o(.ARM.Collect$$libinit$$00000027) for __rt_lib_init_stdio_1
    libinit.o(.ARM.Collect$$libinit$$00000000) refers (Special) to libinit2.o(.ARM.Collect$$libinit$$0000000E) for __rt_lib_init_user_alloc_1
    cmpret.o(.text) refers (Special) to usenofp.o(x$fpl$usenofp) for __I$use$fp
    dnan2.o(.text) refers (Special) to usenofp.o(x$fpl$usenofp) for __I$use$fp
    dnan2.o(.text) refers to retnan.o(.text) for __fpl_return_NaN
    fnan2.o(.text) refers (Special) to usenofp.o(x$fpl$usenofp) for __I$use$fp
    fnan2.o(.text) refers to retnan.o(.text) for __fpl_return_NaN
    libspace.o(.text) refers to libspace.o(.bss) for __libspace_start
    rtexit.o(.ARM.Collect$$rtexit$$00000000) refers (Special) to rtexit2.o(.ARM.Collect$$rtexit$$00000004) for __rt_exit_exit
    rtexit.o(.ARM.Collect$$rtexit$$00000000) refers (Special) to rtexit2.o(.ARM.Collect$$rtexit$$00000003) for __rt_exit_ls
    rtexit.o(.ARM.Collect$$rtexit$$00000000) refers (Special) to rtexit2.o(.ARM.Collect$$rtexit$$00000002) for __rt_exit_prels_1
    rtexit.o(.ARM.exidx) refers (Special) to rtexit2.o(.ARM.Collect$$rtexit$$00000004) for __rt_exit_exit
    rtexit.o(.ARM.exidx) refers (Special) to rtexit2.o(.ARM.Collect$$rtexit$$00000003) for __rt_exit_ls
    rtexit.o(.ARM.exidx) refers (Special) to rtexit2.o(.ARM.Collect$$rtexit$$00000002) for __rt_exit_prels_1
    rtexit.o(.ARM.exidx) refers to rtexit.o(.ARM.Collect$$rtexit$$00000000) for .ARM.Collect$$rtexit$$00000000
    rt_raise.o(.text) refers to __raise.o(.text) for __raise
    rt_raise.o(.text) refers to sys_exit.o(.text) for _sys_exit
    defsig_exit.o(.text) refers to sys_exit.o(.text) for _sys_exit
    defsig_fpe_inner.o(.text) refers to defsig_general.o(.text) for __default_signal_display
    libinit2.o(.ARM.Collect$$libinit$$00000012) refers to libinit2.o(.ARM.Collect$$libinit$$00000011) for .ARM.Collect$$libinit$$00000011
    libinit2.o(.ARM.Collect$$libinit$$00000014) refers to libinit2.o(.ARM.Collect$$libinit$$00000011) for .ARM.Collect$$libinit$$00000011
    libinit2.o(.ARM.Collect$$libinit$$00000016) refers to libinit2.o(.ARM.Collect$$libinit$$00000011) for .ARM.Collect$$libinit$$00000011
    libinit2.o(.ARM.Collect$$libinit$$00000018) refers to libinit2.o(.ARM.Collect$$libinit$$00000011) for .ARM.Collect$$libinit$$00000011
    libinit2.o(.ARM.Collect$$libinit$$0000001A) refers to libinit2.o(.ARM.Collect$$libinit$$00000011) for .ARM.Collect$$libinit$$00000011
    libinit2.o(.ARM.Collect$$libinit$$00000028) refers to argv_veneer.o(.text) for __ARM_argv_veneer
    libinit2.o(.ARM.Collect$$libinit$$00000029) refers to argv_veneer.o(.text) for __ARM_argv_veneer
    retnan.o(.text) refers (Special) to usenofp.o(x$fpl$usenofp) for __I$use$fp
    retnan.o(.text) refers to cmpret.o(.text) for __fpl_cmpreturn
    sys_exit.o(.text) refers (Special) to use_no_semi.o(.text) for __I$use$semihosting
    sys_exit.o(.text) refers (Special) to indicate_semi.o(.text) for __semihosting_library_function
    sys_exit_hlt.o(.text) refers (Special) to use_no_semi.o(.text) for __I$use$semihosting
    sys_exit_hlt.o(.text) refers (Special) to indicate_semi.o(.text) for __semihosting_library_function
    rtexit2.o(.ARM.Collect$$rtexit$$00000003) refers to libshutdown.o(.ARM.Collect$$libshutdown$$00000000) for __rt_lib_shutdown
    rtexit2.o(.ARM.Collect$$rtexit$$00000004) refers to sys_exit.o(.text) for _sys_exit
    rtexit2.o(.ARM.exidx) refers to rtexit2.o(.ARM.Collect$$rtexit$$00000001) for .ARM.Collect$$rtexit$$00000001
    rtexit2.o(.ARM.exidx) refers to rtexit2.o(.ARM.Collect$$rtexit$$00000003) for .ARM.Collect$$rtexit$$00000003
    rtexit2.o(.ARM.exidx) refers to rtexit2.o(.ARM.Collect$$rtexit$$00000004) for .ARM.Collect$$rtexit$$00000004
    __raise.o(.text) refers to defsig.o(CL$$defsig) for __default_signal_handler
    defsig_general.o(.text) refers to sys_wrch.o(.text) for _ttywrch
    sys_wrch.o(.text) refers (Special) to use_no_semi.o(.text) for __I$use$semihosting
    sys_wrch.o(.text) refers (Special) to indicate_semi.o(.text) for __semihosting_library_function
    sys_wrch_hlt.o(.text) refers (Special) to use_no_semi.o(.text) for __I$use$semihosting
    sys_wrch_hlt.o(.text) refers (Special) to indicate_semi.o(.text) for __semihosting_library_function
    defsig.o(CL$$defsig) refers to defsig_fpe_inner.o(.text) for __rt_SIGFPE_inner
    defsig.o(CL$$defsig) refers to defsig_rtmem_inner.o(.text) for __rt_SIGRTMEM_inner
    _get_argv_nomalloc.o(.text) refers (Special) to hrguard.o(.text) for __heap_region$guard
    _get_argv_nomalloc.o(.text) refers to defsig_rtmem_outer.o(.text) for __rt_SIGRTMEM
    _get_argv_nomalloc.o(.text) refers to sys_command.o(.text) for _sys_command_string
    libshutdown.o(.ARM.Collect$$libshutdown$$00000000) refers (Special) to libshutdown2.o(.ARM.Collect$$libshutdown$$00000002) for __rt_lib_shutdown_cpp_1
    libshutdown.o(.ARM.Collect$$libshutdown$$00000000) refers (Special) to libshutdown2.o(.ARM.Collect$$libshutdown$$00000007) for __rt_lib_shutdown_fp_trap_1
    libshutdown.o(.ARM.Collect$$libshutdown$$00000000) refers (Special) to libshutdown2.o(.ARM.Collect$$libshutdown$$0000000F) for __rt_lib_shutdown_heap_1
    libshutdown.o(.ARM.Collect$$libshutdown$$00000000) refers (Special) to libshutdown2.o(.ARM.Collect$$libshutdown$$00000010) for __rt_lib_shutdown_return
    libshutdown.o(.ARM.Collect$$libshutdown$$00000000) refers (Special) to libshutdown2.o(.ARM.Collect$$libshutdown$$0000000A) for __rt_lib_shutdown_signal_1
    libshutdown.o(.ARM.Collect$$libshutdown$$00000000) refers (Special) to libshutdown2.o(.ARM.Collect$$libshutdown$$00000004) for __rt_lib_shutdown_stdio_1
    libshutdown.o(.ARM.Collect$$libshutdown$$00000000) refers (Special) to libshutdown2.o(.ARM.Collect$$libshutdown$$0000000C) for __rt_lib_shutdown_user_alloc_1
    sys_command.o(.text) refers (Special) to use_no_semi.o(.text) for __I$use$semihosting
    sys_command.o(.text) refers (Special) to indicate_semi.o(.text) for __semihosting_library_function
    sys_command_hlt.o(.text) refers (Special) to use_no_semi.o(.text) for __I$use$semihosting
    sys_command_hlt.o(.text) refers (Special) to indicate_semi.o(.text) for __semihosting_library_function
    defsig_abrt_inner.o(.text) refers to defsig_general.o(.text) for __default_signal_display
    defsig_rtred_inner.o(.text) refers to defsig_general.o(.text) for __default_signal_display
    defsig_rtmem_inner.o(.text) refers to defsig_general.o(.text) for __default_signal_display
    defsig_rtmem_outer.o(.text) refers to defsig_rtmem_inner.o(.text) for __rt_SIGRTMEM_inner
    defsig_rtmem_outer.o(.text) refers to defsig_exit.o(.text) for __sig_exit
    defsig_rtmem_formal.o(.text) refers to rt_raise.o(.text) for __rt_raise
    defsig_stak_inner.o(.text) refers to defsig_general.o(.text) for __default_signal_display
    defsig_pvfn_inner.o(.text) refers to defsig_general.o(.text) for __default_signal_display
    defsig_cppl_inner.o(.text) refers to defsig_general.o(.text) for __default_signal_display
    defsig_segv_inner.o(.text) refers to defsig_general.o(.text) for __default_signal_display
    defsig_other.o(.text) refers to defsig_general.o(.text) for __default_signal_display


==============================================================================

Removing Unused input sections from the image.

    Removing main.o(.text), (0 bytes).
    Removing main.o(.ARM.exidx.text.main), (8 bytes).
    Removing main.o(.text.SaveData), (44 bytes).
    Removing main.o(.ARM.exidx.text.SaveData), (8 bytes).
    Removing main.o(.text.LoadData), (16 bytes).
    Removing main.o(.ARM.exidx.text.LoadData), (8 bytes).
    Removing main.o(.text.constrain), (32 bytes).
    Removing main.o(.ARM.exidx.text.constrain), (8 bytes).
    Removing main.o(.ARM.exidx.text.UART1_IRQHandler), (8 bytes).
    Removing main.o(.ARM.exidx.text.GROUP1_IRQHandler), (8 bytes).
    Removing main.o(.ARM.exidx.text.TIMG0_IRQHandler), (8 bytes).
    Removing main.o(.ARM.exidx.text.TIMG6_IRQHandler), (8 bytes).
    Removing main.o(.text.go_straight), (68 bytes).
    Removing main.o(.ARM.exidx.text.go_straight), (8 bytes).
    Removing main.o(.text.go_line), (120 bytes).
    Removing main.o(.ARM.exidx.text.go_line), (8 bytes).
    Removing main.o(.text.turn_little_right), (2 bytes).
    Removing main.o(.ARM.exidx.text.turn_little_right), (8 bytes).
    Removing main.o(.text.turn_little_left), (2 bytes).
    Removing main.o(.ARM.exidx.text.turn_little_left), (8 bytes).
    Removing main.o(.text.go_keep_turn), (2 bytes).
    Removing main.o(.ARM.exidx.text.go_keep_turn), (8 bytes).
    Removing main.o(.text.stop_run), (20 bytes).
    Removing main.o(.ARM.exidx.text.stop_run), (8 bytes).
    Removing main.o(.text.subtask1), (112 bytes).
    Removing main.o(.ARM.exidx.text.subtask1), (8 bytes).
    Removing main.o(.ARM.exidx.text.subtask2), (8 bytes).
    Removing main.o(.ARM.exidx.text.subtask3), (8 bytes).
    Removing main.o(.text.subtask4), (68 bytes).
    Removing main.o(.ARM.exidx.text.subtask4), (8 bytes).
    Removing main.o(.ARM.exidx.text.sdk_run), (8 bytes).
    Removing main.o(.ARM.exidx.text.get_speed), (8 bytes).
    Removing main.o(.text.get_imu), (2 bytes).
    Removing main.o(.ARM.exidx.text.get_imu), (8 bytes).
    Removing main.o(.ARM.exidx.text.set_speed), (8 bytes).
    Removing main.o(.rodata.Sakura), (980 bytes).
    Removing main.o(.rodata.MEGALOVANIA), (828 bytes).
    Removing main.o(.rodata.KAMI), (456 bytes).
    Removing main.o(.bss.subtask_cnt), (24 bytes).
    Removing main.o(.bss.angle), (8 bytes).
    Removing main.o(.ARM.use_no_argv), (4 bytes).
    Removing oled.o(.text), (0 bytes).
    Removing oled.o(.text.delay_ms), (2 bytes).
    Removing oled.o(.ARM.exidx.text.delay_ms), (8 bytes).
    Removing oled.o(.ARM.exidx.text.OLED_WR_Byte), (8 bytes).
    Removing oled.o(.text.OLED_Set_Pos), (40 bytes).
    Removing oled.o(.ARM.exidx.text.OLED_Set_Pos), (8 bytes).
    Removing oled.o(.text.OLED_Display_On), (188 bytes).
    Removing oled.o(.ARM.exidx.text.OLED_Display_On), (8 bytes).
    Removing oled.o(.text.OLED_Display_Off), (192 bytes).
    Removing oled.o(.ARM.exidx.text.OLED_Display_Off), (8 bytes).
    Removing oled.o(.ARM.exidx.text.OLED_Clear), (8 bytes).
    Removing oled.o(.ARM.exidx.text.OLED_ShowChar), (8 bytes).
    Removing oled.o(.text.oled_pow), (68 bytes).
    Removing oled.o(.ARM.exidx.text.oled_pow), (8 bytes).
    Removing oled.o(.ARM.exidx.text.OLED_ShowNum), (8 bytes).
    Removing oled.o(.ARM.exidx.text.OLED_ShowSignedNum), (8 bytes).
    Removing oled.o(.ARM.exidx.text.OLED_ShowString), (8 bytes).
    Removing oled.o(.text.OLED_ShowCHinese), (356 bytes).
    Removing oled.o(.ARM.exidx.text.OLED_ShowCHinese), (8 bytes).
    Removing oled.o(.ARM.exidx.text.OLED_DrawBMP), (8 bytes).
    Removing oled.o(.ARM.exidx.text.OLED_Init), (8 bytes).
    Removing oled.o(.rodata.F6x8), (552 bytes).
    Removing oled.o(.rodata.Hzk), (1728 bytes).
    Removing keyboard.o(.text), (0 bytes).
    Removing keyboard.o(.ARM.exidx.text.Keyboard_init), (8 bytes).
    Removing keyboard.o(.ARM.exidx.text.KeySCInput), (8 bytes).
    Removing pwm.o(.text), (0 bytes).
    Removing pwm.o(.ARM.exidx.text.PWM_init), (8 bytes).
    Removing pwm.o(.ARM.exidx.text.SetLeftMotor), (8 bytes).
    Removing pwm.o(.ARM.exidx.text.SetRightMotor), (8 bytes).
    Removing pwm.o(.ARM.exidx.text.SetServo), (8 bytes).
    Removing pwm.o(.text.pwm_set_freq), (136 bytes).
    Removing pwm.o(.ARM.exidx.text.pwm_set_freq), (8 bytes).
    Removing pwm.o(.text.pwm_set_duty), (64 bytes).
    Removing pwm.o(.ARM.exidx.text.pwm_set_duty), (8 bytes).
    Removing musicplayer.o(.text), (0 bytes).
    Removing musicplayer.o(.ARM.exidx.text.MusicPlayer_init), (8 bytes).
    Removing musicplayer.o(.text.BuzzON), (64 bytes).
    Removing musicplayer.o(.ARM.exidx.text.BuzzON), (8 bytes).
    Removing musicplayer.o(.text.BuzzOFF), (40 bytes).
    Removing musicplayer.o(.ARM.exidx.text.BuzzOFF), (8 bytes).
    Removing musicplayer.o(.text.playMusic), (120 bytes).
    Removing musicplayer.o(.ARM.exidx.text.playMusic), (8 bytes).
    Removing musicplayer.o(.text.playSpScoreNote), (144 bytes).
    Removing musicplayer.o(.ARM.exidx.text.playSpScoreNote), (8 bytes).
    Removing eeprom_emulation_type_a.o(.text), (0 bytes).
    Removing eeprom_emulation_type_a.o(.text.EEPROM_TypeA_writeData), (292 bytes).
    Removing eeprom_emulation_type_a.o(.ARM.exidx.text.EEPROM_TypeA_writeData), (8 bytes).
    Removing eeprom_emulation_type_a.o(.ARM.exidx.text.EEPROM_TypeA_init), (8 bytes).
    Removing eeprom_emulation_type_a.o(.ARM.exidx.text.EEPROM_TypeA_searchCheck), (8 bytes).
    Removing eeprom_emulation_type_a.o(.text.EEPROM_TypeA_readData), (32 bytes).
    Removing eeprom_emulation_type_a.o(.ARM.exidx.text.EEPROM_TypeA_readData), (8 bytes).
    Removing eeprom_emulation_type_a.o(.ARM.exidx.text.EEPROM_TypeA_repairFormat), (8 bytes).
    Removing eeprom_emulation_type_a.o(.text.EEPROM_TypeA_eraseNonActiveSectors), (100 bytes).
    Removing eeprom_emulation_type_a.o(.ARM.exidx.text.EEPROM_TypeA_eraseNonActiveSectors), (8 bytes).
    Removing eeprom_emulation_type_a.o(.text.EEPROM_TypeA_eraseAllSectors), (76 bytes).
    Removing eeprom_emulation_type_a.o(.ARM.exidx.text.EEPROM_TypeA_eraseAllSectors), (8 bytes).
    Removing eeprom_emulation_type_a.o(.text.EEPROM_TypeA_eraseLastSector), (64 bytes).
    Removing eeprom_emulation_type_a.o(.ARM.exidx.text.EEPROM_TypeA_eraseLastSector), (8 bytes).
    Removing eeprom_emulation_type_a.o(.bss.gEEPROMTypeAEraseFlag), (1 bytes).
    Removing uart.o(.text), (0 bytes).
    Removing uart.o(.ARM.exidx.text.UART_init), (8 bytes).
    Removing uart.o(.text.MCUTransData8), (38 bytes).
    Removing uart.o(.ARM.exidx.text.MCUTransData8), (8 bytes).
    Removing uart.o(.text.MCUTransData16), (46 bytes).
    Removing uart.o(.ARM.exidx.text.MCUTransData16), (8 bytes).
    Removing mpu6500_spi.o(.text), (0 bytes).
    Removing mpu6500_spi.o(.text.MPU6500_Write_Byte), (44 bytes).
    Removing mpu6500_spi.o(.ARM.exidx.text.MPU6500_Write_Byte), (8 bytes).
    Removing mpu6500_spi.o(.text.MPU6500_Read_Byte), (40 bytes).
    Removing mpu6500_spi.o(.ARM.exidx.text.MPU6500_Read_Byte), (8 bytes).
    Removing mpu6500_spi.o(.text.AEncoder), (12 bytes).
    Removing mpu6500_spi.o(.ARM.exidx.text.AEncoder), (8 bytes).
    Removing mpu6500_spi.o(.text.ADecoder), (2 bytes).
    Removing mpu6500_spi.o(.ARM.exidx.text.ADecoder), (8 bytes).
    Removing mpu6500_spi.o(.ARM.exidx.text.MPU6500_Init), (8 bytes).
    Removing mpu6500_spi.o(.text.MPU6500_Set_Gyro_Fsr), (44 bytes).
    Removing mpu6500_spi.o(.ARM.exidx.text.MPU6500_Set_Gyro_Fsr), (8 bytes).
    Removing mpu6500_spi.o(.text.MPU6500_Set_Accel_Fsr), (44 bytes).
    Removing mpu6500_spi.o(.ARM.exidx.text.MPU6500_Set_Accel_Fsr), (8 bytes).
    Removing mpu6500_spi.o(.ARM.exidx.text.MPU6500_Calibration), (8 bytes).
    Removing mpu6500_spi.o(.text.MPU6500_Set_LPF), (84 bytes).
    Removing mpu6500_spi.o(.ARM.exidx.text.MPU6500_Set_LPF), (8 bytes).
    Removing mpu6500_spi.o(.text.MPU6500_Set_Rate), (68 bytes).
    Removing mpu6500_spi.o(.ARM.exidx.text.MPU6500_Set_Rate), (8 bytes).
    Removing mpu6500_spi.o(.text.MPU6500_Read_Len), (60 bytes).
    Removing mpu6500_spi.o(.ARM.exidx.text.MPU6500_Read_Len), (8 bytes).
    Removing mpu6500_spi.o(.text.MPU6500_Set_xAOFFSET), (76 bytes).
    Removing mpu6500_spi.o(.ARM.exidx.text.MPU6500_Set_xAOFFSET), (8 bytes).
    Removing mpu6500_spi.o(.text.MPU6500_Set_yAOFFSET), (76 bytes).
    Removing mpu6500_spi.o(.ARM.exidx.text.MPU6500_Set_yAOFFSET), (8 bytes).
    Removing mpu6500_spi.o(.text.MPU6500_Set_zAOFFSET), (76 bytes).
    Removing mpu6500_spi.o(.ARM.exidx.text.MPU6500_Set_zAOFFSET), (8 bytes).
    Removing mpu6500_spi.o(.text.MPU6500_Set_xGOFFSET), (72 bytes).
    Removing mpu6500_spi.o(.ARM.exidx.text.MPU6500_Set_xGOFFSET), (8 bytes).
    Removing mpu6500_spi.o(.text.MPU6500_Set_yGOFFSET), (72 bytes).
    Removing mpu6500_spi.o(.ARM.exidx.text.MPU6500_Set_yGOFFSET), (8 bytes).
    Removing mpu6500_spi.o(.text.MPU6500_Set_zGOFFSET), (72 bytes).
    Removing mpu6500_spi.o(.ARM.exidx.text.MPU6500_Set_zGOFFSET), (8 bytes).
    Removing mpu6500_spi.o(.ARM.exidx.text.MPU6500_getRawData), (8 bytes).
    Removing mpu6500_spi.o(.ARM.exidx.text.MPU6500_getData), (8 bytes).
    Removing mpu6500_spi.o(.text.MPU6500_UARTDebugger), (14 bytes).
    Removing mpu6500_spi.o(.ARM.exidx.text.MPU6500_UARTDebugger), (8 bytes).
    Removing pid.o(.text), (0 bytes).
    Removing pid.o(.ARM.exidx.text.PID_Cal_Inc), (8 bytes).
    Removing pid.o(.ARM.exidx.text.PID_Cal_Pos), (8 bytes).
    Removing pid.o(.ARM.exidx.text.Set_PID), (8 bytes).
    Removing pid.o(.ARM.exidx.text.Set_PID_Limit), (8 bytes).
    Removing pid.o(.text.PID_Clear), (10 bytes).
    Removing pid.o(.ARM.exidx.text.PID_Clear), (8 bytes).
    Removing ti_msp_dl_config.o(.text), (0 bytes).
    Removing ti_msp_dl_config.o(.ARM.exidx.text.SYSCFG_DL_init), (8 bytes).
    Removing ti_msp_dl_config.o(.ARM.exidx.text.SYSCFG_DL_initPower), (8 bytes).
    Removing ti_msp_dl_config.o(.ARM.exidx.text.SYSCFG_DL_GPIO_init), (8 bytes).
    Removing ti_msp_dl_config.o(.ARM.exidx.text.SYSCFG_DL_SYSCTL_init), (8 bytes).
    Removing ti_msp_dl_config.o(.ARM.exidx.text.SYSCFG_DL_PWM_0_init), (8 bytes).
    Removing ti_msp_dl_config.o(.ARM.exidx.text.SYSCFG_DL_MOTOR_init), (8 bytes).
    Removing ti_msp_dl_config.o(.ARM.exidx.text.SYSCFG_DL_Servo_init), (8 bytes).
    Removing ti_msp_dl_config.o(.ARM.exidx.text.SYSCFG_DL_TIMER_5ms_init), (8 bytes).
    Removing ti_msp_dl_config.o(.ARM.exidx.text.SYSCFG_DL_TIMER_1ms_init), (8 bytes).
    Removing ti_msp_dl_config.o(.ARM.exidx.text.SYSCFG_DL_UART_0_init), (8 bytes).
    Removing ti_msp_dl_config.o(.ARM.exidx.text.SYSCFG_DL_MPU_init), (8 bytes).
    Removing ti_msp_dl_config.o(.ARM.exidx.text.SYSCFG_DL_SYSTICK_init), (8 bytes).
    Removing ti_msp_dl_config.o(.text.SYSCFG_DL_saveConfiguration), (100 bytes).
    Removing ti_msp_dl_config.o(.ARM.exidx.text.SYSCFG_DL_saveConfiguration), (8 bytes).
    Removing ti_msp_dl_config.o(.text.SYSCFG_DL_restoreConfiguration), (112 bytes).
    Removing ti_msp_dl_config.o(.ARM.exidx.text.SYSCFG_DL_restoreConfiguration), (8 bytes).
    Removing dl_adc12.o(.text), (0 bytes).
    Removing dl_adc12.o(.text.DL_ADC12_setClockConfig), (64 bytes).
    Removing dl_adc12.o(.ARM.exidx.text.DL_ADC12_setClockConfig), (8 bytes).
    Removing dl_adc12.o(.text.DL_ADC12_getClockConfig), (40 bytes).
    Removing dl_adc12.o(.ARM.exidx.text.DL_ADC12_getClockConfig), (8 bytes).
    Removing dl_aes.o(.text), (0 bytes).
    Removing dl_aes.o(.text.DL_AES_setKey), (72 bytes).
    Removing dl_aes.o(.ARM.exidx.text.DL_AES_setKey), (8 bytes).
    Removing dl_aes.o(.text.DL_AES_setKeyAligned), (56 bytes).
    Removing dl_aes.o(.ARM.exidx.text.DL_AES_setKeyAligned), (8 bytes).
    Removing dl_aes.o(.text.DL_AES_loadDataIn), (40 bytes).
    Removing dl_aes.o(.ARM.exidx.text.DL_AES_loadDataIn), (8 bytes).
    Removing dl_aes.o(.text.DL_AES_loadDataInAligned), (24 bytes).
    Removing dl_aes.o(.ARM.exidx.text.DL_AES_loadDataInAligned), (8 bytes).
    Removing dl_aes.o(.text.DL_AES_getDataOut), (36 bytes).
    Removing dl_aes.o(.ARM.exidx.text.DL_AES_getDataOut), (8 bytes).
    Removing dl_aes.o(.text.DL_AES_getDataOutAligned), (24 bytes).
    Removing dl_aes.o(.ARM.exidx.text.DL_AES_getDataOutAligned), (8 bytes).
    Removing dl_aes.o(.text.DL_AES_loadXORDataIn), (40 bytes).
    Removing dl_aes.o(.ARM.exidx.text.DL_AES_loadXORDataIn), (8 bytes).
    Removing dl_aes.o(.text.DL_AES_loadXORDataInAligned), (24 bytes).
    Removing dl_aes.o(.ARM.exidx.text.DL_AES_loadXORDataInAligned), (8 bytes).
    Removing dl_aes.o(.text.DL_AES_loadXORDataInWithoutTrigger), (40 bytes).
    Removing dl_aes.o(.ARM.exidx.text.DL_AES_loadXORDataInWithoutTrigger), (8 bytes).
    Removing dl_aes.o(.text.DL_AES_loadXORDataInWithoutTriggerAligned), (24 bytes).
    Removing dl_aes.o(.ARM.exidx.text.DL_AES_loadXORDataInWithoutTriggerAligned), (8 bytes).
    Removing dl_aes.o(.text.DL_AES_xorData), (52 bytes).
    Removing dl_aes.o(.ARM.exidx.text.DL_AES_xorData), (8 bytes).
    Removing dl_aes.o(.text.DL_AES_xorDataAligned), (36 bytes).
    Removing dl_aes.o(.ARM.exidx.text.DL_AES_xorDataAligned), (8 bytes).
    Removing dl_aes.o(.text.DL_AES_saveConfiguration), (60 bytes).
    Removing dl_aes.o(.ARM.exidx.text.DL_AES_saveConfiguration), (8 bytes).
    Removing dl_aes.o(.text.DL_AES_restoreConfiguration), (60 bytes).
    Removing dl_aes.o(.ARM.exidx.text.DL_AES_restoreConfiguration), (8 bytes).
    Removing dl_common.o(.text), (0 bytes).
    Removing dl_common.o(.ARM.exidx.text.DL_Common_delayCycles), (8 bytes).
    Removing dl_crc.o(.text), (0 bytes).
    Removing dl_crc.o(.text.DL_CRC_calculateBlock32), (92 bytes).
    Removing dl_crc.o(.ARM.exidx.text.DL_CRC_calculateBlock32), (8 bytes).
    Removing dl_crc.o(.text.DL_CRC_calculateMemoryRange32), (52 bytes).
    Removing dl_crc.o(.ARM.exidx.text.DL_CRC_calculateMemoryRange32), (8 bytes).
    Removing dl_crc.o(.text.DL_CRC_calculateBlock16), (152 bytes).
    Removing dl_crc.o(.ARM.exidx.text.DL_CRC_calculateBlock16), (8 bytes).
    Removing dl_crc.o(.text.DL_CRC_calculateMemoryRange16), (104 bytes).
    Removing dl_crc.o(.ARM.exidx.text.DL_CRC_calculateMemoryRange16), (8 bytes).
    Removing dl_dac12.o(.text), (0 bytes).
    Removing dl_dac12.o(.text.DL_DAC12_init), (136 bytes).
    Removing dl_dac12.o(.ARM.exidx.text.DL_DAC12_init), (8 bytes).
    Removing dl_dac12.o(.text.DL_DAC12_outputBlocking8), (48 bytes).
    Removing dl_dac12.o(.ARM.exidx.text.DL_DAC12_outputBlocking8), (8 bytes).
    Removing dl_dac12.o(.text.DL_DAC12_outputBlocking12), (56 bytes).
    Removing dl_dac12.o(.ARM.exidx.text.DL_DAC12_outputBlocking12), (8 bytes).
    Removing dl_dac12.o(.text.DL_DAC12_fillFIFO8), (160 bytes).
    Removing dl_dac12.o(.ARM.exidx.text.DL_DAC12_fillFIFO8), (8 bytes).
    Removing dl_dac12.o(.text.DL_DAC12_fillFIFO12), (56 bytes).
    Removing dl_dac12.o(.ARM.exidx.text.DL_DAC12_fillFIFO12), (8 bytes).
    Removing dl_dac12.o(.text.DL_DAC12_performSelfCalibrationBlocking), (36 bytes).
    Removing dl_dac12.o(.ARM.exidx.text.DL_DAC12_performSelfCalibrationBlocking), (8 bytes).
    Removing dl_dma.o(.text), (0 bytes).
    Removing dl_dma.o(.text.DL_DMA_initChannel), (68 bytes).
    Removing dl_dma.o(.ARM.exidx.text.DL_DMA_initChannel), (8 bytes).
    Removing dl_flashctl.o(.text), (0 bytes).
    Removing dl_flashctl.o(.text.DL_FlashCTL_eraseMemory), (22 bytes).
    Removing dl_flashctl.o(.ARM.exidx.text.DL_FlashCTL_eraseMemory), (8 bytes).
    Removing dl_flashctl.o(.ARM.exidx.text.DL_FlashCTL_eraseMemoryFromRAM), (8 bytes).
    Removing dl_flashctl.o(.ARM.exidx.ramfunc), (8 bytes).
    Removing dl_flashctl.o(.text.DL_FlashCTL_massErase), (176 bytes).
    Removing dl_flashctl.o(.ARM.exidx.text.DL_FlashCTL_massErase), (8 bytes).
    Removing dl_flashctl.o(.text.DL_FlashCTL_unprotectMainMemory), (20 bytes).
    Removing dl_flashctl.o(.ARM.exidx.text.DL_FlashCTL_unprotectMainMemory), (8 bytes).
    Removing dl_flashctl.o(.text.DL_FlashCTL_protectNonMainMemory), (16 bytes).
    Removing dl_flashctl.o(.ARM.exidx.text.DL_FlashCTL_protectNonMainMemory), (8 bytes).
    Removing dl_flashctl.o(.text.DL_FlashCTL_eraseDataBank), (80 bytes).
    Removing dl_flashctl.o(.ARM.exidx.text.DL_FlashCTL_eraseDataBank), (8 bytes).
    Removing dl_flashctl.o(.text.DL_FlashCTL_massEraseFromRAM), (112 bytes).
    Removing dl_flashctl.o(.ARM.exidx.text.DL_FlashCTL_massEraseFromRAM), (8 bytes).
    Removing dl_flashctl.o(.text.DL_FlashCTL_eraseDataBankFromRAM), (44 bytes).
    Removing dl_flashctl.o(.ARM.exidx.text.DL_FlashCTL_eraseDataBankFromRAM), (8 bytes).
    Removing dl_flashctl.o(.text.DL_FlashCTL_massEraseMultiBank), (344 bytes).
    Removing dl_flashctl.o(.ARM.exidx.text.DL_FlashCTL_massEraseMultiBank), (8 bytes).
    Removing dl_flashctl.o(.text.DL_FlashCTL_factoryReset), (236 bytes).
    Removing dl_flashctl.o(.ARM.exidx.text.DL_FlashCTL_factoryReset), (8 bytes).
    Removing dl_flashctl.o(.text.DL_FlashCTL_unprotectNonMainMemory), (12 bytes).
    Removing dl_flashctl.o(.ARM.exidx.text.DL_FlashCTL_unprotectNonMainMemory), (8 bytes).
    Removing dl_flashctl.o(.text.DL_FlashCTL_factoryResetFromRAM), (136 bytes).
    Removing dl_flashctl.o(.ARM.exidx.text.DL_FlashCTL_factoryResetFromRAM), (8 bytes).
    Removing dl_flashctl.o(.text.DL_FlashCTL_factoryResetMultiBank), (92 bytes).
    Removing dl_flashctl.o(.ARM.exidx.text.DL_FlashCTL_factoryResetMultiBank), (8 bytes).
    Removing dl_flashctl.o(.text.DL_FlashCTL_programMemory8), (24 bytes).
    Removing dl_flashctl.o(.ARM.exidx.text.DL_FlashCTL_programMemory8), (8 bytes).
    Removing dl_flashctl.o(.text.DL_FlashCTL_programMemoryFromRAM8), (28 bytes).
    Removing dl_flashctl.o(.ARM.exidx.text.DL_FlashCTL_programMemoryFromRAM8), (8 bytes).
    Removing dl_flashctl.o(.text.DL_FlashCTL_programMemory16), (26 bytes).
    Removing dl_flashctl.o(.ARM.exidx.text.DL_FlashCTL_programMemory16), (8 bytes).
    Removing dl_flashctl.o(.text.DL_FlashCTL_programMemoryFromRAM16), (32 bytes).
    Removing dl_flashctl.o(.ARM.exidx.text.DL_FlashCTL_programMemoryFromRAM16), (8 bytes).
    Removing dl_flashctl.o(.text.DL_FlashCTL_programMemory32), (26 bytes).
    Removing dl_flashctl.o(.ARM.exidx.text.DL_FlashCTL_programMemory32), (8 bytes).
    Removing dl_flashctl.o(.text.DL_FlashCTL_programMemoryFromRAM32), (32 bytes).
    Removing dl_flashctl.o(.ARM.exidx.text.DL_FlashCTL_programMemoryFromRAM32), (8 bytes).
    Removing dl_flashctl.o(.text.DL_FlashCTL_programMemory64), (30 bytes).
    Removing dl_flashctl.o(.ARM.exidx.text.DL_FlashCTL_programMemory64), (8 bytes).
    Removing dl_flashctl.o(.ARM.exidx.text.DL_FlashCTL_programMemoryFromRAM64), (8 bytes).
    Removing dl_flashctl.o(.text.DL_FlashCTL_programMemory8WithECCGenerated), (28 bytes).
    Removing dl_flashctl.o(.ARM.exidx.text.DL_FlashCTL_programMemory8WithECCGenerated), (8 bytes).
    Removing dl_flashctl.o(.text.DL_FlashCTL_programMemoryFromRAM8WithECCGenerated), (32 bytes).
    Removing dl_flashctl.o(.ARM.exidx.text.DL_FlashCTL_programMemoryFromRAM8WithECCGenerated), (8 bytes).
    Removing dl_flashctl.o(.text.DL_FlashCTL_programMemory16WithECCGenerated), (28 bytes).
    Removing dl_flashctl.o(.ARM.exidx.text.DL_FlashCTL_programMemory16WithECCGenerated), (8 bytes).
    Removing dl_flashctl.o(.text.DL_FlashCTL_programMemoryFromRAM16WithECCGenerated), (32 bytes).
    Removing dl_flashctl.o(.ARM.exidx.text.DL_FlashCTL_programMemoryFromRAM16WithECCGenerated), (8 bytes).
    Removing dl_flashctl.o(.text.DL_FlashCTL_programMemory32WithECCGenerated), (28 bytes).
    Removing dl_flashctl.o(.ARM.exidx.text.DL_FlashCTL_programMemory32WithECCGenerated), (8 bytes).
    Removing dl_flashctl.o(.text.DL_FlashCTL_programMemoryFromRAM32WithECCGenerated), (32 bytes).
    Removing dl_flashctl.o(.ARM.exidx.text.DL_FlashCTL_programMemoryFromRAM32WithECCGenerated), (8 bytes).
    Removing dl_flashctl.o(.text.DL_FlashCTL_programMemory64WithECCGenerated), (36 bytes).
    Removing dl_flashctl.o(.ARM.exidx.text.DL_FlashCTL_programMemory64WithECCGenerated), (8 bytes).
    Removing dl_flashctl.o(.ARM.exidx.text.DL_FlashCTL_programMemoryFromRAM64WithECCGenerated), (8 bytes).
    Removing dl_flashctl.o(.text.DL_FlashCTL_programMemory8WithECCManual), (40 bytes).
    Removing dl_flashctl.o(.ARM.exidx.text.DL_FlashCTL_programMemory8WithECCManual), (8 bytes).
    Removing dl_flashctl.o(.text.DL_FlashCTL_programMemoryFromRAM8WithECCManual), (44 bytes).
    Removing dl_flashctl.o(.ARM.exidx.text.DL_FlashCTL_programMemoryFromRAM8WithECCManual), (8 bytes).
    Removing dl_flashctl.o(.text.DL_FlashCTL_programMemory16WithECCManual), (40 bytes).
    Removing dl_flashctl.o(.ARM.exidx.text.DL_FlashCTL_programMemory16WithECCManual), (8 bytes).
    Removing dl_flashctl.o(.text.DL_FlashCTL_programMemoryFromRAM16WithECCManual), (44 bytes).
    Removing dl_flashctl.o(.ARM.exidx.text.DL_FlashCTL_programMemoryFromRAM16WithECCManual), (8 bytes).
    Removing dl_flashctl.o(.text.DL_FlashCTL_programMemory32WithECCManual), (40 bytes).
    Removing dl_flashctl.o(.ARM.exidx.text.DL_FlashCTL_programMemory32WithECCManual), (8 bytes).
    Removing dl_flashctl.o(.text.DL_FlashCTL_programMemoryFromRAM32WithECCManual), (44 bytes).
    Removing dl_flashctl.o(.ARM.exidx.text.DL_FlashCTL_programMemoryFromRAM32WithECCManual), (8 bytes).
    Removing dl_flashctl.o(.text.DL_FlashCTL_programMemory64WithECCManual), (44 bytes).
    Removing dl_flashctl.o(.ARM.exidx.text.DL_FlashCTL_programMemory64WithECCManual), (8 bytes).
    Removing dl_flashctl.o(.text.DL_FlashCTL_programMemoryFromRAM64WithECCManual), (48 bytes).
    Removing dl_flashctl.o(.ARM.exidx.text.DL_FlashCTL_programMemoryFromRAM64WithECCManual), (8 bytes).
    Removing dl_flashctl.o(.text.DL_FlashCTL_programMemoryBlocking64WithECCGenerated), (136 bytes).
    Removing dl_flashctl.o(.ARM.exidx.text.DL_FlashCTL_programMemoryBlocking64WithECCGenerated), (8 bytes).
    Removing dl_flashctl.o(.ARM.exidx.text.DL_FlashCTL_unprotectSector), (8 bytes).
    Removing dl_flashctl.o(.ARM.exidx.text.DL_FlashCTL_programMemoryBlockingFromRAM64WithECCGenerated), (8 bytes).
    Removing dl_flashctl.o(.text.DL_FlashCTL_programMemoryBlocking64WithECCManual), (168 bytes).
    Removing dl_flashctl.o(.ARM.exidx.text.DL_FlashCTL_programMemoryBlocking64WithECCManual), (8 bytes).
    Removing dl_flashctl.o(.text.DL_FlashCTL_programMemoryBlockingFromRAM64WithECCManual), (120 bytes).
    Removing dl_flashctl.o(.ARM.exidx.text.DL_FlashCTL_programMemoryBlockingFromRAM64WithECCManual), (8 bytes).
    Removing dl_flashctl.o(.text.DL_FlashCTL_programMemoryBlocking), (160 bytes).
    Removing dl_flashctl.o(.ARM.exidx.text.DL_FlashCTL_programMemoryBlocking), (8 bytes).
    Removing dl_flashctl.o(.text.DL_FlashCTL_programMemoryFromRAM), (120 bytes).
    Removing dl_flashctl.o(.ARM.exidx.text.DL_FlashCTL_programMemoryFromRAM), (8 bytes).
    Removing dl_flashctl.o(.text.DL_FlashCTL_unprotectDataMemory), (20 bytes).
    Removing dl_flashctl.o(.ARM.exidx.text.DL_FlashCTL_unprotectDataMemory), (8 bytes).
    Removing dl_flashctl.o(.text.DL_FlashCTL_protectMainMemory), (20 bytes).
    Removing dl_flashctl.o(.ARM.exidx.text.DL_FlashCTL_protectMainMemory), (8 bytes).
    Removing dl_flashctl.o(.text.DL_FlashCTL_unprotectAllMemory), (24 bytes).
    Removing dl_flashctl.o(.ARM.exidx.text.DL_FlashCTL_unprotectAllMemory), (8 bytes).
    Removing dl_flashctl.o(.text.DL_FlashCTL_protectAllMemory), (28 bytes).
    Removing dl_flashctl.o(.ARM.exidx.text.DL_FlashCTL_protectAllMemory), (8 bytes).
    Removing dl_flashctl.o(.text.DL_FlashCTL_protectSector), (240 bytes).
    Removing dl_flashctl.o(.ARM.exidx.text.DL_FlashCTL_protectSector), (8 bytes).
    Removing dl_flashctl.o(.text.DL_FlashCTL_readVerify8), (26 bytes).
    Removing dl_flashctl.o(.ARM.exidx.text.DL_FlashCTL_readVerify8), (8 bytes).
    Removing dl_flashctl.o(.text.DL_FlashCTL_readVerify16), (26 bytes).
    Removing dl_flashctl.o(.ARM.exidx.text.DL_FlashCTL_readVerify16), (8 bytes).
    Removing dl_flashctl.o(.text.DL_FlashCTL_readVerify32), (28 bytes).
    Removing dl_flashctl.o(.ARM.exidx.text.DL_FlashCTL_readVerify32), (8 bytes).
    Removing dl_flashctl.o(.text.DL_FlashCTL_readVerify64), (32 bytes).
    Removing dl_flashctl.o(.ARM.exidx.text.DL_FlashCTL_readVerify64), (8 bytes).
    Removing dl_flashctl.o(.text.DL_FlashCTL_readVerifyFromRAM8), (32 bytes).
    Removing dl_flashctl.o(.ARM.exidx.text.DL_FlashCTL_readVerifyFromRAM8), (8 bytes).
    Removing dl_flashctl.o(.text.DL_FlashCTL_readVerifyFromRAM16), (28 bytes).
    Removing dl_flashctl.o(.ARM.exidx.text.DL_FlashCTL_readVerifyFromRAM16), (8 bytes).
    Removing dl_flashctl.o(.text.DL_FlashCTL_readVerifyFromRAM32), (32 bytes).
    Removing dl_flashctl.o(.ARM.exidx.text.DL_FlashCTL_readVerifyFromRAM32), (8 bytes).
    Removing dl_flashctl.o(.text.DL_FlashCTL_readVerifyFromRAM64), (36 bytes).
    Removing dl_flashctl.o(.ARM.exidx.text.DL_FlashCTL_readVerifyFromRAM64), (8 bytes).
    Removing dl_flashctl.o(.text.DL_FlashCTL_readVerifyFromRAM8WithECCGenerated), (32 bytes).
    Removing dl_flashctl.o(.ARM.exidx.text.DL_FlashCTL_readVerifyFromRAM8WithECCGenerated), (8 bytes).
    Removing dl_flashctl.o(.text.DL_FlashCTL_readVerifyFromRAM16WithECCGenerated), (32 bytes).
    Removing dl_flashctl.o(.ARM.exidx.text.DL_FlashCTL_readVerifyFromRAM16WithECCGenerated), (8 bytes).
    Removing dl_flashctl.o(.text.DL_FlashCTL_readVerifyFromRAM32WithECCGenerated), (32 bytes).
    Removing dl_flashctl.o(.ARM.exidx.text.DL_FlashCTL_readVerifyFromRAM32WithECCGenerated), (8 bytes).
    Removing dl_flashctl.o(.text.DL_FlashCTL_readVerifyFromRAM64WithECCGenerated), (40 bytes).
    Removing dl_flashctl.o(.ARM.exidx.text.DL_FlashCTL_readVerifyFromRAM64WithECCGenerated), (8 bytes).
    Removing dl_flashctl.o(.text.DL_FlashCTL_readVerifyFromRAM8WithECCManual), (44 bytes).
    Removing dl_flashctl.o(.ARM.exidx.text.DL_FlashCTL_readVerifyFromRAM8WithECCManual), (8 bytes).
    Removing dl_flashctl.o(.text.DL_FlashCTL_readVerifyFromRAM16WithECCManual), (44 bytes).
    Removing dl_flashctl.o(.ARM.exidx.text.DL_FlashCTL_readVerifyFromRAM16WithECCManual), (8 bytes).
    Removing dl_flashctl.o(.text.DL_FlashCTL_readVerifyFromRAM32WithECCManual), (44 bytes).
    Removing dl_flashctl.o(.ARM.exidx.text.DL_FlashCTL_readVerifyFromRAM32WithECCManual), (8 bytes).
    Removing dl_flashctl.o(.text.DL_FlashCTL_readVerifyFromRAM64WithECCManual), (48 bytes).
    Removing dl_flashctl.o(.ARM.exidx.text.DL_FlashCTL_readVerifyFromRAM64WithECCManual), (8 bytes).
    Removing dl_flashctl.o(.text.DL_FlashCTL_readVerify8WithECCGenerated), (30 bytes).
    Removing dl_flashctl.o(.ARM.exidx.text.DL_FlashCTL_readVerify8WithECCGenerated), (8 bytes).
    Removing dl_flashctl.o(.text.DL_FlashCTL_readVerify16WithECCGenerated), (30 bytes).
    Removing dl_flashctl.o(.ARM.exidx.text.DL_FlashCTL_readVerify16WithECCGenerated), (8 bytes).
    Removing dl_flashctl.o(.text.DL_FlashCTL_readVerify32WithECCGenerated), (30 bytes).
    Removing dl_flashctl.o(.ARM.exidx.text.DL_FlashCTL_readVerify32WithECCGenerated), (8 bytes).
    Removing dl_flashctl.o(.text.DL_FlashCTL_readVerify64WithECCGenerated), (36 bytes).
    Removing dl_flashctl.o(.ARM.exidx.text.DL_FlashCTL_readVerify64WithECCGenerated), (8 bytes).
    Removing dl_flashctl.o(.text.DL_FlashCTL_readVerify8WithECCManual), (40 bytes).
    Removing dl_flashctl.o(.ARM.exidx.text.DL_FlashCTL_readVerify8WithECCManual), (8 bytes).
    Removing dl_flashctl.o(.text.DL_FlashCTL_readVerify16WithECCManual), (40 bytes).
    Removing dl_flashctl.o(.ARM.exidx.text.DL_FlashCTL_readVerify16WithECCManual), (8 bytes).
    Removing dl_flashctl.o(.text.DL_FlashCTL_readVerify32WithECCManual), (40 bytes).
    Removing dl_flashctl.o(.ARM.exidx.text.DL_FlashCTL_readVerify32WithECCManual), (8 bytes).
    Removing dl_flashctl.o(.text.DL_FlashCTL_readVerify64WithECCManual), (48 bytes).
    Removing dl_flashctl.o(.ARM.exidx.text.DL_FlashCTL_readVerify64WithECCManual), (8 bytes).
    Removing dl_flashctl.o(.text.DL_FlashCTL_blankVerify), (20 bytes).
    Removing dl_flashctl.o(.ARM.exidx.text.DL_FlashCTL_blankVerify), (8 bytes).
    Removing dl_flashctl.o(.text.DL_FlashCTL_blankVerifyFromRAM), (24 bytes).
    Removing dl_flashctl.o(.ARM.exidx.text.DL_FlashCTL_blankVerifyFromRAM), (8 bytes).
    Removing dl_i2c.o(.text), (0 bytes).
    Removing dl_i2c.o(.text.DL_I2C_setClockConfig), (38 bytes).
    Removing dl_i2c.o(.ARM.exidx.text.DL_I2C_setClockConfig), (8 bytes).
    Removing dl_i2c.o(.text.DL_I2C_getClockConfig), (26 bytes).
    Removing dl_i2c.o(.ARM.exidx.text.DL_I2C_getClockConfig), (8 bytes).
    Removing dl_i2c.o(.text.DL_I2C_fillControllerTXFIFO), (128 bytes).
    Removing dl_i2c.o(.ARM.exidx.text.DL_I2C_fillControllerTXFIFO), (8 bytes).
    Removing dl_i2c.o(.text.DL_I2C_flushControllerTXFIFO), (68 bytes).
    Removing dl_i2c.o(.ARM.exidx.text.DL_I2C_flushControllerTXFIFO), (8 bytes).
    Removing dl_i2c.o(.text.DL_I2C_flushControllerRXFIFO), (52 bytes).
    Removing dl_i2c.o(.ARM.exidx.text.DL_I2C_flushControllerRXFIFO), (8 bytes).
    Removing dl_i2c.o(.text.DL_I2C_fillTargetTXFIFO), (132 bytes).
    Removing dl_i2c.o(.ARM.exidx.text.DL_I2C_fillTargetTXFIFO), (8 bytes).
    Removing dl_i2c.o(.text.DL_I2C_flushTargetTXFIFO), (68 bytes).
    Removing dl_i2c.o(.ARM.exidx.text.DL_I2C_flushTargetTXFIFO), (8 bytes).
    Removing dl_i2c.o(.text.DL_I2C_flushTargetRXFIFO), (52 bytes).
    Removing dl_i2c.o(.ARM.exidx.text.DL_I2C_flushTargetRXFIFO), (8 bytes).
    Removing dl_i2c.o(.text.DL_I2C_transmitTargetDataBlocking), (36 bytes).
    Removing dl_i2c.o(.ARM.exidx.text.DL_I2C_transmitTargetDataBlocking), (8 bytes).
    Removing dl_i2c.o(.text.DL_I2C_transmitTargetDataCheck), (28 bytes).
    Removing dl_i2c.o(.ARM.exidx.text.DL_I2C_transmitTargetDataCheck), (8 bytes).
    Removing dl_i2c.o(.text.DL_I2C_receiveTargetDataBlocking), (40 bytes).
    Removing dl_i2c.o(.ARM.exidx.text.DL_I2C_receiveTargetDataBlocking), (8 bytes).
    Removing dl_i2c.o(.text.DL_I2C_receiveTargetDataCheck), (24 bytes).
    Removing dl_i2c.o(.ARM.exidx.text.DL_I2C_receiveTargetDataCheck), (8 bytes).
    Removing dl_mathacl.o(.text), (0 bytes).
    Removing dl_mathacl.o(.text.DL_MathACL_configOperation), (40 bytes).
    Removing dl_mathacl.o(.ARM.exidx.text.DL_MathACL_configOperation), (8 bytes).
    Removing dl_mcan.o(.text), (0 bytes).
    Removing dl_mcan.o(.text.DL_MCAN_isReady), (20 bytes).
    Removing dl_mcan.o(.ARM.exidx.text.DL_MCAN_isReady), (8 bytes).
    Removing dl_mcan.o(.text.DL_MCAN_setClockConfig), (36 bytes).
    Removing dl_mcan.o(.ARM.exidx.text.DL_MCAN_setClockConfig), (8 bytes).
    Removing dl_mcan.o(.text.DL_MCAN_getClockConfig), (20 bytes).
    Removing dl_mcan.o(.ARM.exidx.text.DL_MCAN_getClockConfig), (8 bytes).
    Removing dl_mcan.o(.text.DL_MCAN_isInReset), (16 bytes).
    Removing dl_mcan.o(.ARM.exidx.text.DL_MCAN_isInReset), (8 bytes).
    Removing dl_mcan.o(.text.DL_MCAN_isFDOpEnable), (16 bytes).
    Removing dl_mcan.o(.ARM.exidx.text.DL_MCAN_isFDOpEnable), (8 bytes).
    Removing dl_mcan.o(.text.DL_MCAN_isMemInitDone), (16 bytes).
    Removing dl_mcan.o(.ARM.exidx.text.DL_MCAN_isMemInitDone), (8 bytes).
    Removing dl_mcan.o(.text.DL_MCAN_setOpMode), (24 bytes).
    Removing dl_mcan.o(.ARM.exidx.text.DL_MCAN_setOpMode), (8 bytes).
    Removing dl_mcan.o(.text.DL_MCAN_getOpMode), (16 bytes).
    Removing dl_mcan.o(.ARM.exidx.text.DL_MCAN_getOpMode), (8 bytes).
    Removing dl_mcan.o(.text.DL_MCAN_init), (216 bytes).
    Removing dl_mcan.o(.ARM.exidx.text.DL_MCAN_init), (8 bytes).
    Removing dl_mcan.o(.text.DL_MCAN_config), (212 bytes).
    Removing dl_mcan.o(.ARM.exidx.text.DL_MCAN_config), (8 bytes).
    Removing dl_mcan.o(.text.DL_MCAN_eccConfig), (184 bytes).
    Removing dl_mcan.o(.ARM.exidx.text.DL_MCAN_eccConfig), (8 bytes).
    Removing dl_mcan.o(.text.DL_MCAN_setBitTime), (216 bytes).
    Removing dl_mcan.o(.ARM.exidx.text.DL_MCAN_setBitTime), (8 bytes).
    Removing dl_mcan.o(.text.DL_MCAN_msgRAMConfig), (536 bytes).
    Removing dl_mcan.o(.ARM.exidx.text.DL_MCAN_msgRAMConfig), (8 bytes).
    Removing dl_mcan.o(.text.DL_MCAN_setExtIDAndMask), (52 bytes).
    Removing dl_mcan.o(.ARM.exidx.text.DL_MCAN_setExtIDAndMask), (8 bytes).
    Removing dl_mcan.o(.text.DL_MCAN_writeMsgRam), (264 bytes).
    Removing dl_mcan.o(.ARM.exidx.text.DL_MCAN_writeMsgRam), (8 bytes).
    Removing dl_mcan.o(.text.DL_MCAN_TXBufAddReq), (52 bytes).
    Removing dl_mcan.o(.ARM.exidx.text.DL_MCAN_TXBufAddReq), (8 bytes).
    Removing dl_mcan.o(.text.DL_MCAN_getNewDataStatus), (20 bytes).
    Removing dl_mcan.o(.ARM.exidx.text.DL_MCAN_getNewDataStatus), (8 bytes).
    Removing dl_mcan.o(.text.DL_MCAN_clearNewDataStatus), (20 bytes).
    Removing dl_mcan.o(.ARM.exidx.text.DL_MCAN_clearNewDataStatus), (8 bytes).
    Removing dl_mcan.o(.text.DL_MCAN_readMsgRam), (292 bytes).
    Removing dl_mcan.o(.ARM.exidx.text.DL_MCAN_readMsgRam), (8 bytes).
    Removing dl_mcan.o(.text.DL_MCAN_readTxEventFIFO), (96 bytes).
    Removing dl_mcan.o(.ARM.exidx.text.DL_MCAN_readTxEventFIFO), (8 bytes).
    Removing dl_mcan.o(.text.DL_MCAN_addStdMsgIDFilter), (44 bytes).
    Removing dl_mcan.o(.ARM.exidx.text.DL_MCAN_addStdMsgIDFilter), (8 bytes).
    Removing dl_mcan.o(.text.DL_MCAN_addExtMsgIDFilter), (44 bytes).
    Removing dl_mcan.o(.ARM.exidx.text.DL_MCAN_addExtMsgIDFilter), (8 bytes).
    Removing dl_mcan.o(.text.DL_MCAN_lpbkModeEnable), (88 bytes).
    Removing dl_mcan.o(.ARM.exidx.text.DL_MCAN_lpbkModeEnable), (8 bytes).
    Removing dl_mcan.o(.text.DL_MCAN_getErrCounters), (40 bytes).
    Removing dl_mcan.o(.ARM.exidx.text.DL_MCAN_getErrCounters), (8 bytes).
    Removing dl_mcan.o(.text.DL_MCAN_getProtocolStatus), (80 bytes).
    Removing dl_mcan.o(.ARM.exidx.text.DL_MCAN_getProtocolStatus), (8 bytes).
    Removing dl_mcan.o(.text.DL_MCAN_enableIntr), (28 bytes).
    Removing dl_mcan.o(.ARM.exidx.text.DL_MCAN_enableIntr), (8 bytes).
    Removing dl_mcan.o(.text.DL_MCAN_selectIntrLine), (28 bytes).
    Removing dl_mcan.o(.ARM.exidx.text.DL_MCAN_selectIntrLine), (8 bytes).
    Removing dl_mcan.o(.text.DL_MCAN_getIntrLineSelectStatus), (12 bytes).
    Removing dl_mcan.o(.ARM.exidx.text.DL_MCAN_getIntrLineSelectStatus), (8 bytes).
    Removing dl_mcan.o(.text.DL_MCAN_enableIntrLine), (28 bytes).
    Removing dl_mcan.o(.ARM.exidx.text.DL_MCAN_enableIntrLine), (8 bytes).
    Removing dl_mcan.o(.text.DL_MCAN_getIntrStatus), (12 bytes).
    Removing dl_mcan.o(.ARM.exidx.text.DL_MCAN_getIntrStatus), (8 bytes).
    Removing dl_mcan.o(.text.DL_MCAN_clearIntrStatus), (20 bytes).
    Removing dl_mcan.o(.ARM.exidx.text.DL_MCAN_clearIntrStatus), (8 bytes).
    Removing dl_mcan.o(.text.DL_MCAN_getHighPriorityMsgStatus), (44 bytes).
    Removing dl_mcan.o(.ARM.exidx.text.DL_MCAN_getHighPriorityMsgStatus), (8 bytes).
    Removing dl_mcan.o(.text.DL_MCAN_getRxFIFOStatus), (60 bytes).
    Removing dl_mcan.o(.ARM.exidx.text.DL_MCAN_getRxFIFOStatus), (8 bytes).
    Removing dl_mcan.o(.text.DL_MCAN_writeRxFIFOAck), (64 bytes).
    Removing dl_mcan.o(.ARM.exidx.text.DL_MCAN_writeRxFIFOAck), (8 bytes).
    Removing dl_mcan.o(.text.DL_MCAN_getTxFIFOQueStatus), (36 bytes).
    Removing dl_mcan.o(.ARM.exidx.text.DL_MCAN_getTxFIFOQueStatus), (8 bytes).
    Removing dl_mcan.o(.text.DL_MCAN_getTxBufReqPend), (12 bytes).
    Removing dl_mcan.o(.ARM.exidx.text.DL_MCAN_getTxBufReqPend), (8 bytes).
    Removing dl_mcan.o(.text.DL_MCAN_txBufCancellationReq), (52 bytes).
    Removing dl_mcan.o(.ARM.exidx.text.DL_MCAN_txBufCancellationReq), (8 bytes).
    Removing dl_mcan.o(.text.DL_MCAN_getTxBufTransmissionStatus), (12 bytes).
    Removing dl_mcan.o(.ARM.exidx.text.DL_MCAN_getTxBufTransmissionStatus), (8 bytes).
    Removing dl_mcan.o(.text.DL_MCAN_txBufCancellationStatus), (12 bytes).
    Removing dl_mcan.o(.ARM.exidx.text.DL_MCAN_txBufCancellationStatus), (8 bytes).
    Removing dl_mcan.o(.text.DL_MCAN_TXBufTransIntrEnable), (44 bytes).
    Removing dl_mcan.o(.ARM.exidx.text.DL_MCAN_TXBufTransIntrEnable), (8 bytes).
    Removing dl_mcan.o(.text.DL_MCAN_getTxBufCancellationIntrEnable), (44 bytes).
    Removing dl_mcan.o(.ARM.exidx.text.DL_MCAN_getTxBufCancellationIntrEnable), (8 bytes).
    Removing dl_mcan.o(.text.DL_MCAN_getTxEventFIFOStatus), (44 bytes).
    Removing dl_mcan.o(.ARM.exidx.text.DL_MCAN_getTxEventFIFOStatus), (8 bytes).
    Removing dl_mcan.o(.text.DL_MCAN_addClockStopRequest), (28 bytes).
    Removing dl_mcan.o(.ARM.exidx.text.DL_MCAN_addClockStopRequest), (8 bytes).
    Removing dl_mcan.o(.text.DL_MCAN_writeTxEventFIFOAck), (44 bytes).
    Removing dl_mcan.o(.ARM.exidx.text.DL_MCAN_writeTxEventFIFOAck), (8 bytes).
    Removing dl_mcan.o(.text.DL_MCAN_eccForceError), (220 bytes).
    Removing dl_mcan.o(.ARM.exidx.text.DL_MCAN_eccForceError), (8 bytes).
    Removing dl_mcan.o(.text.DL_MCAN_eccGetErrorStatus), (128 bytes).
    Removing dl_mcan.o(.ARM.exidx.text.DL_MCAN_eccGetErrorStatus), (8 bytes).
    Removing dl_mcan.o(.text.DL_MCAN_eccClearErrorStatus), (112 bytes).
    Removing dl_mcan.o(.ARM.exidx.text.DL_MCAN_eccClearErrorStatus), (8 bytes).
    Removing dl_mcan.o(.text.DL_MCAN_eccWriteEOI), (36 bytes).
    Removing dl_mcan.o(.ARM.exidx.text.DL_MCAN_eccWriteEOI), (8 bytes).
    Removing dl_mcan.o(.text.DL_MCAN_eccEnableIntr), (56 bytes).
    Removing dl_mcan.o(.ARM.exidx.text.DL_MCAN_eccEnableIntr), (8 bytes).
    Removing dl_mcan.o(.text.DL_MCAN_eccGetIntrStatus), (36 bytes).
    Removing dl_mcan.o(.ARM.exidx.text.DL_MCAN_eccGetIntrStatus), (8 bytes).
    Removing dl_mcan.o(.text.DL_MCAN_eccClearIntrStatus), (36 bytes).
    Removing dl_mcan.o(.ARM.exidx.text.DL_MCAN_eccClearIntrStatus), (8 bytes).
    Removing dl_mcan.o(.text.DL_MCAN_extTSCounterConfig), (24 bytes).
    Removing dl_mcan.o(.ARM.exidx.text.DL_MCAN_extTSCounterConfig), (8 bytes).
    Removing dl_mcan.o(.text.DL_MCAN_extTSCounterEnable), (28 bytes).
    Removing dl_mcan.o(.ARM.exidx.text.DL_MCAN_extTSCounterEnable), (8 bytes).
    Removing dl_mcan.o(.text.DL_MCAN_extTSEnableIntr), (28 bytes).
    Removing dl_mcan.o(.ARM.exidx.text.DL_MCAN_extTSEnableIntr), (8 bytes).
    Removing dl_mcan.o(.text.DL_MCAN_extTSWriteEOI), (20 bytes).
    Removing dl_mcan.o(.ARM.exidx.text.DL_MCAN_extTSWriteEOI), (8 bytes).
    Removing dl_mcan.o(.text.DL_MCAN_extTSGetUnservicedIntrCount), (16 bytes).
    Removing dl_mcan.o(.ARM.exidx.text.DL_MCAN_extTSGetUnservicedIntrCount), (8 bytes).
    Removing dl_mcan.o(.text.DL_MCAN_getRevisionId), (68 bytes).
    Removing dl_mcan.o(.ARM.exidx.text.DL_MCAN_getRevisionId), (8 bytes).
    Removing dl_mcan.o(.text.DL_MCAN_getClockStopAck), (16 bytes).
    Removing dl_mcan.o(.ARM.exidx.text.DL_MCAN_getClockStopAck), (8 bytes).
    Removing dl_mcan.o(.text.DL_MCAN_extTSSetRawStatus), (16 bytes).
    Removing dl_mcan.o(.ARM.exidx.text.DL_MCAN_extTSSetRawStatus), (8 bytes).
    Removing dl_mcan.o(.text.DL_MCAN_extTSClearRawStatus), (16 bytes).
    Removing dl_mcan.o(.ARM.exidx.text.DL_MCAN_extTSClearRawStatus), (8 bytes).
    Removing dl_mcan.o(.text.DL_MCAN_getRxPinState), (16 bytes).
    Removing dl_mcan.o(.ARM.exidx.text.DL_MCAN_getRxPinState), (8 bytes).
    Removing dl_mcan.o(.text.DL_MCAN_setTxPinState), (48 bytes).
    Removing dl_mcan.o(.ARM.exidx.text.DL_MCAN_setTxPinState), (8 bytes).
    Removing dl_mcan.o(.text.DL_MCAN_getTxPinState), (16 bytes).
    Removing dl_mcan.o(.ARM.exidx.text.DL_MCAN_getTxPinState), (8 bytes).
    Removing dl_mcan.o(.text.DL_MCAN_getTSCounterVal), (12 bytes).
    Removing dl_mcan.o(.ARM.exidx.text.DL_MCAN_getTSCounterVal), (8 bytes).
    Removing dl_mcan.o(.text.DL_MCAN_getClkStopAck), (16 bytes).
    Removing dl_mcan.o(.ARM.exidx.text.DL_MCAN_getClkStopAck), (8 bytes).
    Removing dl_mcan.o(.text.DL_MCAN_getBitTime), (76 bytes).
    Removing dl_mcan.o(.ARM.exidx.text.DL_MCAN_getBitTime), (8 bytes).
    Removing dl_mcan.o(.text.DL_MCAN_resetTSCounter), (20 bytes).
    Removing dl_mcan.o(.ARM.exidx.text.DL_MCAN_resetTSCounter), (8 bytes).
    Removing dl_mcan.o(.text.DL_MCAN_getTOCounterVal), (12 bytes).
    Removing dl_mcan.o(.ARM.exidx.text.DL_MCAN_getTOCounterVal), (8 bytes).
    Removing dl_mcan.o(.text.DL_MCAN_eccAggrGetRevisionId), (32 bytes).
    Removing dl_mcan.o(.ARM.exidx.text.DL_MCAN_eccAggrGetRevisionId), (8 bytes).
    Removing dl_mcan.o(.text.DL_MCAN_eccWrapGetRevisionId), (84 bytes).
    Removing dl_mcan.o(.ARM.exidx.text.DL_MCAN_eccWrapGetRevisionId), (8 bytes).
    Removing dl_mcan.o(.text.DL_MCAN_extTSIsIntrEnable), (16 bytes).
    Removing dl_mcan.o(.ARM.exidx.text.DL_MCAN_extTSIsIntrEnable), (8 bytes).
    Removing dl_mcan.o(.text.DL_MCAN_getEndianVal), (12 bytes).
    Removing dl_mcan.o(.ARM.exidx.text.DL_MCAN_getEndianVal), (8 bytes).
    Removing dl_mcan.o(.text.DL_MCAN_getExtIDANDMask), (16 bytes).
    Removing dl_mcan.o(.ARM.exidx.text.DL_MCAN_getExtIDANDMask), (8 bytes).
    Removing dl_mcan.o(.text.DL_MCAN_saveConfiguration), (228 bytes).
    Removing dl_mcan.o(.ARM.exidx.text.DL_MCAN_saveConfiguration), (8 bytes).
    Removing dl_mcan.o(.text.DL_MCAN_restoreConfiguration), (276 bytes).
    Removing dl_mcan.o(.ARM.exidx.text.DL_MCAN_restoreConfiguration), (8 bytes).
    Removing dl_mcan.o(.rodata..L__const.DL_MCAN_getDataSize.dataSize), (64 bytes).
    Removing dl_mcan.o(.rodata.cst32), (32 bytes).
    Removing dl_opa.o(.text), (0 bytes).
    Removing dl_opa.o(.text.DL_OPA_increaseGain), (52 bytes).
    Removing dl_opa.o(.ARM.exidx.text.DL_OPA_increaseGain), (8 bytes).
    Removing dl_opa.o(.text.DL_OPA_decreaseGain), (48 bytes).
    Removing dl_opa.o(.ARM.exidx.text.DL_OPA_decreaseGain), (8 bytes).
    Removing dl_rtc.o(.text), (0 bytes).
    Removing dl_rtc.o(.text.DL_RTC_initCalendar), (144 bytes).
    Removing dl_rtc.o(.ARM.exidx.text.DL_RTC_initCalendar), (8 bytes).
    Removing dl_rtc.o(.text.DL_RTC_getCalendarTime), (124 bytes).
    Removing dl_rtc.o(.ARM.exidx.text.DL_RTC_getCalendarTime), (8 bytes).
    Removing dl_rtc.o(.text.DL_RTC_setCalendarAlarm1), (96 bytes).
    Removing dl_rtc.o(.ARM.exidx.text.DL_RTC_setCalendarAlarm1), (8 bytes).
    Removing dl_rtc.o(.text.DL_RTC_getCalendarAlarm1), (84 bytes).
    Removing dl_rtc.o(.ARM.exidx.text.DL_RTC_getCalendarAlarm1), (8 bytes).
    Removing dl_rtc.o(.text.DL_RTC_enableCalendarAlarm1), (60 bytes).
    Removing dl_rtc.o(.ARM.exidx.text.DL_RTC_enableCalendarAlarm1), (8 bytes).
    Removing dl_rtc.o(.text.DL_RTC_disableCalendarAlarm1), (68 bytes).
    Removing dl_rtc.o(.ARM.exidx.text.DL_RTC_disableCalendarAlarm1), (8 bytes).
    Removing dl_rtc.o(.text.DL_RTC_setCalendarAlarm2), (96 bytes).
    Removing dl_rtc.o(.ARM.exidx.text.DL_RTC_setCalendarAlarm2), (8 bytes).
    Removing dl_rtc.o(.text.DL_RTC_getCalendarAlarm2), (84 bytes).
    Removing dl_rtc.o(.ARM.exidx.text.DL_RTC_getCalendarAlarm2), (8 bytes).
    Removing dl_rtc.o(.text.DL_RTC_enableCalendarAlarm2), (60 bytes).
    Removing dl_rtc.o(.ARM.exidx.text.DL_RTC_enableCalendarAlarm2), (8 bytes).
    Removing dl_rtc.o(.text.DL_RTC_disableCalendarAlarm2), (68 bytes).
    Removing dl_rtc.o(.ARM.exidx.text.DL_RTC_disableCalendarAlarm2), (8 bytes).
    Removing dl_spi.o(.text), (0 bytes).
    Removing dl_spi.o(.ARM.exidx.text.DL_SPI_init), (8 bytes).
    Removing dl_spi.o(.ARM.exidx.text.DL_SPI_setClockConfig), (8 bytes).
    Removing dl_spi.o(.text.DL_SPI_getClockConfig), (16 bytes).
    Removing dl_spi.o(.ARM.exidx.text.DL_SPI_getClockConfig), (8 bytes).
    Removing dl_spi.o(.ARM.exidx.text.DL_SPI_receiveDataBlocking8), (8 bytes).
    Removing dl_spi.o(.text.DL_SPI_receiveDataBlocking16), (40 bytes).
    Removing dl_spi.o(.ARM.exidx.text.DL_SPI_receiveDataBlocking16), (8 bytes).
    Removing dl_spi.o(.text.DL_SPI_receiveDataBlocking32), (36 bytes).
    Removing dl_spi.o(.ARM.exidx.text.DL_SPI_receiveDataBlocking32), (8 bytes).
    Removing dl_spi.o(.ARM.exidx.text.DL_SPI_transmitDataBlocking8), (8 bytes).
    Removing dl_spi.o(.text.DL_SPI_transmitDataBlocking16), (36 bytes).
    Removing dl_spi.o(.ARM.exidx.text.DL_SPI_transmitDataBlocking16), (8 bytes).
    Removing dl_spi.o(.text.DL_SPI_transmitDataBlocking32), (36 bytes).
    Removing dl_spi.o(.ARM.exidx.text.DL_SPI_transmitDataBlocking32), (8 bytes).
    Removing dl_spi.o(.text.DL_SPI_receiveDataCheck8), (28 bytes).
    Removing dl_spi.o(.ARM.exidx.text.DL_SPI_receiveDataCheck8), (8 bytes).
    Removing dl_spi.o(.text.DL_SPI_receiveDataCheck16), (28 bytes).
    Removing dl_spi.o(.ARM.exidx.text.DL_SPI_receiveDataCheck16), (8 bytes).
    Removing dl_spi.o(.text.DL_SPI_receiveDataCheck32), (28 bytes).
    Removing dl_spi.o(.ARM.exidx.text.DL_SPI_receiveDataCheck32), (8 bytes).
    Removing dl_spi.o(.text.DL_SPI_transmitDataCheck8), (28 bytes).
    Removing dl_spi.o(.ARM.exidx.text.DL_SPI_transmitDataCheck8), (8 bytes).
    Removing dl_spi.o(.text.DL_SPI_transmitDataCheck16), (28 bytes).
    Removing dl_spi.o(.ARM.exidx.text.DL_SPI_transmitDataCheck16), (8 bytes).
    Removing dl_spi.o(.text.DL_SPI_transmitDataCheck32), (28 bytes).
    Removing dl_spi.o(.ARM.exidx.text.DL_SPI_transmitDataCheck32), (8 bytes).
    Removing dl_spi.o(.text.DL_SPI_drainRXFIFO8), (116 bytes).
    Removing dl_spi.o(.ARM.exidx.text.DL_SPI_drainRXFIFO8), (8 bytes).
    Removing dl_spi.o(.text.DL_SPI_drainRXFIFO16), (104 bytes).
    Removing dl_spi.o(.ARM.exidx.text.DL_SPI_drainRXFIFO16), (8 bytes).
    Removing dl_spi.o(.text.DL_SPI_drainRXFIFO32), (104 bytes).
    Removing dl_spi.o(.ARM.exidx.text.DL_SPI_drainRXFIFO32), (8 bytes).
    Removing dl_spi.o(.text.DL_SPI_fillTXFIFO8), (116 bytes).
    Removing dl_spi.o(.ARM.exidx.text.DL_SPI_fillTXFIFO8), (8 bytes).
    Removing dl_spi.o(.text.DL_SPI_fillTXFIFO16), (104 bytes).
    Removing dl_spi.o(.ARM.exidx.text.DL_SPI_fillTXFIFO16), (8 bytes).
    Removing dl_spi.o(.text.DL_SPI_saveConfiguration), (80 bytes).
    Removing dl_spi.o(.ARM.exidx.text.DL_SPI_saveConfiguration), (8 bytes).
    Removing dl_spi.o(.text.DL_SPI_restoreConfiguration), (112 bytes).
    Removing dl_spi.o(.ARM.exidx.text.DL_SPI_restoreConfiguration), (8 bytes).
    Removing dl_spi.o(.text.DL_SPI_fillTXFIFO32), (104 bytes).
    Removing dl_spi.o(.ARM.exidx.text.DL_SPI_fillTXFIFO32), (8 bytes).
    Removing dl_timer.o(.text), (0 bytes).
    Removing dl_timer.o(.ARM.exidx.text.DL_Timer_setClockConfig), (8 bytes).
    Removing dl_timer.o(.text.DL_Timer_getClockConfig), (28 bytes).
    Removing dl_timer.o(.ARM.exidx.text.DL_Timer_getClockConfig), (8 bytes).
    Removing dl_timer.o(.ARM.exidx.text.DL_Timer_initTimerMode), (8 bytes).
    Removing dl_timer.o(.ARM.exidx.text.DL_Timer_setCaptureCompareValue), (8 bytes).
    Removing dl_timer.o(.text.DL_Timer_setCaptureCompareCtl), (40 bytes).
    Removing dl_timer.o(.ARM.exidx.text.DL_Timer_setCaptureCompareCtl), (8 bytes).
    Removing dl_timer.o(.text.DL_Timer_initCaptureMode), (264 bytes).
    Removing dl_timer.o(.ARM.exidx.text.DL_Timer_initCaptureMode), (8 bytes).
    Removing dl_timer.o(.text.DL_Timer_setCaptureCompareInput), (26 bytes).
    Removing dl_timer.o(.ARM.exidx.text.DL_Timer_setCaptureCompareInput), (8 bytes).
    Removing dl_timer.o(.text.DL_Timer_initCaptureTriggerMode), (112 bytes).
    Removing dl_timer.o(.ARM.exidx.text.DL_Timer_initCaptureTriggerMode), (8 bytes).
    Removing dl_timer.o(.text.DL_Timer_initCaptureCombinedMode), (228 bytes).
    Removing dl_timer.o(.ARM.exidx.text.DL_Timer_initCaptureCombinedMode), (8 bytes).
    Removing dl_timer.o(.text.DL_Timer_initCompareMode), (172 bytes).
    Removing dl_timer.o(.ARM.exidx.text.DL_Timer_initCompareMode), (8 bytes).
    Removing dl_timer.o(.text.DL_Timer_initCompareTriggerMode), (96 bytes).
    Removing dl_timer.o(.ARM.exidx.text.DL_Timer_initCompareTriggerMode), (8 bytes).
    Removing dl_timer.o(.ARM.exidx.text.DL_Timer_initPWMMode), (8 bytes).
    Removing dl_timer.o(.text.DL_Timer_setCaptureCompareAction), (36 bytes).
    Removing dl_timer.o(.ARM.exidx.text.DL_Timer_setCaptureCompareAction), (8 bytes).
    Removing dl_timer.o(.ARM.exidx.text.DL_Timer_setCaptureCompareOutCtl), (8 bytes).
    Removing dl_timer.o(.text.DL_Timer_getCaptureCompareValue), (16 bytes).
    Removing dl_timer.o(.ARM.exidx.text.DL_Timer_getCaptureCompareValue), (8 bytes).
    Removing dl_timer.o(.text.DL_Timer_getCaptureCompareCtl), (24 bytes).
    Removing dl_timer.o(.ARM.exidx.text.DL_Timer_getCaptureCompareCtl), (8 bytes).
    Removing dl_timer.o(.text.DL_Timer_enableSuppressionOfCompEvent), (24 bytes).
    Removing dl_timer.o(.ARM.exidx.text.DL_Timer_enableSuppressionOfCompEvent), (8 bytes).
    Removing dl_timer.o(.text.DL_Timer_disableSuppressionOfCompEvent), (24 bytes).
    Removing dl_timer.o(.ARM.exidx.text.DL_Timer_disableSuppressionOfCompEvent), (8 bytes).
    Removing dl_timer.o(.ARM.exidx.text.DL_Timer_setCaptCompUpdateMethod), (8 bytes).
    Removing dl_timer.o(.text.DL_Timer_getCaptCompUpdateMethod), (20 bytes).
    Removing dl_timer.o(.ARM.exidx.text.DL_Timer_getCaptCompUpdateMethod), (8 bytes).
    Removing dl_timer.o(.text.DL_Timer_getCaptureCompareOutCtl), (16 bytes).
    Removing dl_timer.o(.ARM.exidx.text.DL_Timer_getCaptureCompareOutCtl), (8 bytes).
    Removing dl_timer.o(.text.DL_Timer_getCaptureCompareAction), (24 bytes).
    Removing dl_timer.o(.ARM.exidx.text.DL_Timer_getCaptureCompareAction), (8 bytes).
    Removing dl_timer.o(.text.DL_Timer_overrideCCPOut), (32 bytes).
    Removing dl_timer.o(.ARM.exidx.text.DL_Timer_overrideCCPOut), (8 bytes).
    Removing dl_timer.o(.text.DL_Timer_getCaptureCompareInput), (16 bytes).
    Removing dl_timer.o(.ARM.exidx.text.DL_Timer_getCaptureCompareInput), (8 bytes).
    Removing dl_timer.o(.text.DL_Timer_setCaptureCompareInputFilter), (28 bytes).
    Removing dl_timer.o(.ARM.exidx.text.DL_Timer_setCaptureCompareInputFilter), (8 bytes).
    Removing dl_timer.o(.text.DL_Timer_getCaptureCompareInputFilter), (18 bytes).
    Removing dl_timer.o(.ARM.exidx.text.DL_Timer_getCaptureCompareInputFilter), (8 bytes).
    Removing dl_timer.o(.text.DL_Timer_enableCaptureCompareInputFilter), (20 bytes).
    Removing dl_timer.o(.ARM.exidx.text.DL_Timer_enableCaptureCompareInputFilter), (8 bytes).
    Removing dl_timer.o(.text.DL_Timer_disableCaptureCompareInputFilter), (20 bytes).
    Removing dl_timer.o(.ARM.exidx.text.DL_Timer_disableCaptureCompareInputFilter), (8 bytes).
    Removing dl_timer.o(.text.DL_Timer_isCaptureCompareInputFilterEnabled), (20 bytes).
    Removing dl_timer.o(.ARM.exidx.text.DL_Timer_isCaptureCompareInputFilterEnabled), (8 bytes).
    Removing dl_timer.o(.text.DL_Timer_saveConfiguration), (192 bytes).
    Removing dl_timer.o(.ARM.exidx.text.DL_Timer_saveConfiguration), (8 bytes).
    Removing dl_timer.o(.text.DL_Timer_restoreConfiguration), (196 bytes).
    Removing dl_timer.o(.ARM.exidx.text.DL_Timer_restoreConfiguration), (8 bytes).
    Removing dl_timer.o(.ARM.exidx.text.DL_TimerA_initPWMMode), (8 bytes).
    Removing dl_timer.o(.text.DL_Timer_setFaultSourceConfig), (44 bytes).
    Removing dl_timer.o(.ARM.exidx.text.DL_Timer_setFaultSourceConfig), (8 bytes).
    Removing dl_timer.o(.text.DL_Timer_getFaultSourceConfig), (32 bytes).
    Removing dl_timer.o(.ARM.exidx.text.DL_Timer_getFaultSourceConfig), (8 bytes).
    Removing dl_timer.o(.text.DL_TimerA_saveConfiguration), (264 bytes).
    Removing dl_timer.o(.ARM.exidx.text.DL_TimerA_saveConfiguration), (8 bytes).
    Removing dl_timer.o(.text.DL_TimerA_restoreConfiguration), (276 bytes).
    Removing dl_timer.o(.ARM.exidx.text.DL_TimerA_restoreConfiguration), (8 bytes).
    Removing dl_timer.o(.text.DL_Timer_configQEIHallInputMode), (32 bytes).
    Removing dl_timer.o(.ARM.exidx.text.DL_Timer_configQEIHallInputMode), (8 bytes).
    Removing dl_timer.o(.rodata..Lswitch.table.DL_Timer_initCompareMode), (12 bytes).
    Removing dl_trng.o(.text), (0 bytes).
    Removing dl_trng.o(.text.DL_TRNG_saveConfiguration), (44 bytes).
    Removing dl_trng.o(.ARM.exidx.text.DL_TRNG_saveConfiguration), (8 bytes).
    Removing dl_trng.o(.text.DL_TRNG_restoreConfiguration), (72 bytes).
    Removing dl_trng.o(.ARM.exidx.text.DL_TRNG_restoreConfiguration), (8 bytes).
    Removing dl_uart.o(.text), (0 bytes).
    Removing dl_uart.o(.ARM.exidx.text.DL_UART_init), (8 bytes).
    Removing dl_uart.o(.ARM.exidx.text.DL_UART_setClockConfig), (8 bytes).
    Removing dl_uart.o(.text.DL_UART_getClockConfig), (16 bytes).
    Removing dl_uart.o(.ARM.exidx.text.DL_UART_getClockConfig), (8 bytes).
    Removing dl_uart.o(.text.DL_UART_configBaudRate), (132 bytes).
    Removing dl_uart.o(.ARM.exidx.text.DL_UART_configBaudRate), (8 bytes).
    Removing dl_uart.o(.text.DL_UART_configIrDAMode), (68 bytes).
    Removing dl_uart.o(.ARM.exidx.text.DL_UART_configIrDAMode), (8 bytes).
    Removing dl_uart.o(.text.DL_UART_setIrDAPulseLength), (48 bytes).
    Removing dl_uart.o(.ARM.exidx.text.DL_UART_setIrDAPulseLength), (8 bytes).
    Removing dl_uart.o(.text.DL_UART_receiveDataBlocking), (40 bytes).
    Removing dl_uart.o(.ARM.exidx.text.DL_UART_receiveDataBlocking), (8 bytes).
    Removing dl_uart.o(.text.DL_UART_transmitDataBlocking), (36 bytes).
    Removing dl_uart.o(.ARM.exidx.text.DL_UART_transmitDataBlocking), (8 bytes).
    Removing dl_uart.o(.text.DL_UART_receiveDataCheck), (28 bytes).
    Removing dl_uart.o(.ARM.exidx.text.DL_UART_receiveDataCheck), (8 bytes).
    Removing dl_uart.o(.text.DL_UART_transmitDataCheck), (28 bytes).
    Removing dl_uart.o(.ARM.exidx.text.DL_UART_transmitDataCheck), (8 bytes).
    Removing dl_uart.o(.text.DL_UART_drainRXFIFO), (116 bytes).
    Removing dl_uart.o(.ARM.exidx.text.DL_UART_drainRXFIFO), (8 bytes).
    Removing dl_uart.o(.text.DL_UART_fillTXFIFO), (116 bytes).
    Removing dl_uart.o(.ARM.exidx.text.DL_UART_fillTXFIFO), (8 bytes).
    Removing dl_uart.o(.text.DL_UART_Main_saveConfiguration), (88 bytes).
    Removing dl_uart.o(.ARM.exidx.text.DL_UART_Main_saveConfiguration), (8 bytes).
    Removing dl_uart.o(.text.DL_UART_Main_restoreConfiguration), (120 bytes).
    Removing dl_uart.o(.ARM.exidx.text.DL_UART_Main_restoreConfiguration), (8 bytes).
    Removing dl_uart.o(.text.DL_UART_Extend_saveConfiguration), (104 bytes).
    Removing dl_uart.o(.ARM.exidx.text.DL_UART_Extend_saveConfiguration), (8 bytes).
    Removing dl_uart.o(.text.DL_UART_Extend_restoreConfiguration), (132 bytes).
    Removing dl_uart.o(.ARM.exidx.text.DL_UART_Extend_restoreConfiguration), (8 bytes).
    Removing dl_vref.o(.text), (0 bytes).
    Removing dl_vref.o(.text.DL_VREF_configReference), (32 bytes).
    Removing dl_vref.o(.ARM.exidx.text.DL_VREF_configReference), (8 bytes).
    Removing dl_vref.o(.text.DL_VREF_setClockConfig), (18 bytes).
    Removing dl_vref.o(.ARM.exidx.text.DL_VREF_setClockConfig), (8 bytes).
    Removing dl_vref.o(.text.DL_VREF_getClockConfig), (16 bytes).
    Removing dl_vref.o(.ARM.exidx.text.DL_VREF_getClockConfig), (8 bytes).
    Removing dl_interrupt.o(.text), (0 bytes).
    Removing dl_interrupt.o(.text.DL_Interrupt_registerInterrupt), (144 bytes).
    Removing dl_interrupt.o(.ARM.exidx.text.DL_Interrupt_registerInterrupt), (8 bytes).
    Removing dl_interrupt.o(.text.DL_Interrupt_unregisterInterrupt), (20 bytes).
    Removing dl_interrupt.o(.ARM.exidx.text.DL_Interrupt_unregisterInterrupt), (8 bytes).
    Removing dl_interrupt.o(.vtable), (192 bytes).
    Removing dl_sysctl_mspm0g1x0x_g3x0x.o(.text), (0 bytes).
    Removing dl_sysctl_mspm0g1x0x_g3x0x.o(.ARM.exidx.text.DL_SYSCTL_configSYSPLL), (8 bytes).
    Removing dl_sysctl_mspm0g1x0x_g3x0x.o(.text.DL_SYSCTL_setLFCLKSourceLFXT), (100 bytes).
    Removing dl_sysctl_mspm0g1x0x_g3x0x.o(.ARM.exidx.text.DL_SYSCTL_setLFCLKSourceLFXT), (8 bytes).
    Removing dl_sysctl_mspm0g1x0x_g3x0x.o(.text.DL_SYSCTL_switchMCLKfromSYSOSCtoLFCLK), (80 bytes).
    Removing dl_sysctl_mspm0g1x0x_g3x0x.o(.ARM.exidx.text.DL_SYSCTL_switchMCLKfromSYSOSCtoLFCLK), (8 bytes).
    Removing dl_sysctl_mspm0g1x0x_g3x0x.o(.text.DL_SYSCTL_switchMCLKfromLFCLKtoSYSOSC), (60 bytes).
    Removing dl_sysctl_mspm0g1x0x_g3x0x.o(.ARM.exidx.text.DL_SYSCTL_switchMCLKfromLFCLKtoSYSOSC), (8 bytes).
    Removing dl_sysctl_mspm0g1x0x_g3x0x.o(.ARM.exidx.text.DL_SYSCTL_switchMCLKfromSYSOSCtoHSCLK), (8 bytes).
    Removing dl_sysctl_mspm0g1x0x_g3x0x.o(.text.DL_SYSCTL_switchMCLKfromHSCLKtoSYSOSC), (48 bytes).
    Removing dl_sysctl_mspm0g1x0x_g3x0x.o(.ARM.exidx.text.DL_SYSCTL_switchMCLKfromHSCLKtoSYSOSC), (8 bytes).
    Removing dl_sysctl_mspm0g1x0x_g3x0x.o(.text.DL_SYSCTL_setHFCLKSourceHFXT), (96 bytes).
    Removing dl_sysctl_mspm0g1x0x_g3x0x.o(.ARM.exidx.text.DL_SYSCTL_setHFCLKSourceHFXT), (8 bytes).
    Removing dl_sysctl_mspm0g1x0x_g3x0x.o(.text.DL_SYSCTL_setHFCLKSourceHFXTParams), (108 bytes).
    Removing dl_sysctl_mspm0g1x0x_g3x0x.o(.ARM.exidx.text.DL_SYSCTL_setHFCLKSourceHFXTParams), (8 bytes).
    Removing dl_sysctl_mspm0g1x0x_g3x0x.o(.text.DL_SYSCTL_configFCC), (28 bytes).
    Removing dl_sysctl_mspm0g1x0x_g3x0x.o(.ARM.exidx.text.DL_SYSCTL_configFCC), (8 bytes).
    Removing dl_sysctl_mspm0g1x0x_g3x0x.o(.text.DL_SYSCTL_getPowerPolicyRUNSLEEP), (48 bytes).
    Removing dl_sysctl_mspm0g1x0x_g3x0x.o(.ARM.exidx.text.DL_SYSCTL_getPowerPolicyRUNSLEEP), (8 bytes).
    Removing dl_sysctl_mspm0g1x0x_g3x0x.o(.text.DL_SYSCTL_getPowerPolicySTOP), (52 bytes).
    Removing dl_sysctl_mspm0g1x0x_g3x0x.o(.ARM.exidx.text.DL_SYSCTL_getPowerPolicySTOP), (8 bytes).
    Removing dl_sysctl_mspm0g1x0x_g3x0x.o(.text.DL_SYSCTL_getPowerPolicySTANDBY), (40 bytes).
    Removing dl_sysctl_mspm0g1x0x_g3x0x.o(.ARM.exidx.text.DL_SYSCTL_getPowerPolicySTANDBY), (8 bytes).

767 unused section(s) (total 29609 bytes) removed from the image.

==============================================================================

Adding Veneers to the image

    Adding TT veneer (12 bytes, Long) for call to 'DL_FlashCTL_executeCommandFromRAM' from dl_flashctl.o(.text.DL_FlashCTL_eraseMemoryFromRAM).

1 Veneer(s) (total 12 bytes) added to the image.

==============================================================================

Image Symbol Table

    Local Symbols

    Symbol Name                              Value     Ov Type        Size  Object(Section)

    ../clib/angel/boardlib.s                 0x00000000   Number         0  boardinit1.o ABSOLUTE
    ../clib/angel/boardlib.s                 0x00000000   Number         0  boardinit2.o ABSOLUTE
    ../clib/angel/boardlib.s                 0x00000000   Number         0  boardinit3.o ABSOLUTE
    ../clib/angel/boardlib.s                 0x00000000   Number         0  boardshut.o ABSOLUTE
    ../clib/angel/handlers.s                 0x00000000   Number         0  __scatter_copy.o ABSOLUTE
    ../clib/angel/handlers.s                 0x00000000   Number         0  __scatter_zi.o ABSOLUTE
    ../clib/angel/kernel.s                   0x00000000   Number         0  __rtentry.o ABSOLUTE
    ../clib/angel/kernel.s                   0x00000000   Number         0  __rtentry2.o ABSOLUTE
    ../clib/angel/kernel.s                   0x00000000   Number         0  __rtentry4.o ABSOLUTE
    ../clib/angel/kernel.s                   0x00000000   Number         0  rtexit.o ABSOLUTE
    ../clib/angel/kernel.s                   0x00000000   Number         0  rtexit2.o ABSOLUTE
    ../clib/angel/rt.s                       0x00000000   Number         0  aeabi_idiv0.o ABSOLUTE
    ../clib/angel/rt.s                       0x00000000   Number         0  aeabi_idiv0_sigfpe.o ABSOLUTE
    ../clib/angel/rt.s                       0x00000000   Number         0  rt_div0.o ABSOLUTE
    ../clib/angel/rt.s                       0x00000000   Number         0  rt_raise.o ABSOLUTE
    ../clib/angel/scatterp.s                 0x00000000   Number         0  __scatter.o ABSOLUTE
    ../clib/angel/startup.s                  0x00000000   Number         0  __main.o ABSOLUTE
    ../clib/angel/sys.s                      0x00000000   Number         0  sys_stackheap_outer.o ABSOLUTE
    ../clib/angel/sys.s                      0x00000000   Number         0  libspace.o ABSOLUTE
    ../clib/angel/sys.s                      0x00000000   Number         0  tempstk.o ABSOLUTE
    ../clib/angel/sys.s                      0x00000000   Number         0  use_no_semi.o ABSOLUTE
    ../clib/angel/sys.s                      0x00000000   Number         0  indicate_semi.o ABSOLUTE
    ../clib/angel/sysapp.c                   0x00000000   Number         0  sys_exit.o ABSOLUTE
    ../clib/angel/sysapp.c                   0x00000000   Number         0  sys_exit_hlt.o ABSOLUTE
    ../clib/angel/sysapp.c                   0x00000000   Number         0  sys_wrch.o ABSOLUTE
    ../clib/angel/sysapp.c                   0x00000000   Number         0  sys_wrch_hlt.o ABSOLUTE
    ../clib/angel/sysapp.c                   0x00000000   Number         0  sys_command.o ABSOLUTE
    ../clib/angel/sysapp.c                   0x00000000   Number         0  sys_command_hlt.o ABSOLUTE
    ../clib/armsys.c                         0x00000000   Number         0  argv_veneer.o ABSOLUTE
    ../clib/armsys.c                         0x00000000   Number         0  _get_argv_nomalloc.o ABSOLUTE
    ../clib/armsys.c                         0x00000000   Number         0  no_argv.o ABSOLUTE
    ../clib/division.s                       0x00000000   Number         0  aeabi_sdivfast.o ABSOLUTE
    ../clib/division.s                       0x00000000   Number         0  aeabi_sdivfast_div0.o ABSOLUTE
    ../clib/heapalloc.c                      0x00000000   Number         0  hrguard.o ABSOLUTE
    ../clib/heapaux.c                        0x00000000   Number         0  heapauxi.o ABSOLUTE
    ../clib/libinit.s                        0x00000000   Number         0  libinit.o ABSOLUTE
    ../clib/libinit.s                        0x00000000   Number         0  libinit2.o ABSOLUTE
    ../clib/libinit.s                        0x00000000   Number         0  libshutdown.o ABSOLUTE
    ../clib/libinit.s                        0x00000000   Number         0  libshutdown2.o ABSOLUTE
    ../clib/signal.c                         0x00000000   Number         0  defsig_fpe_outer.o ABSOLUTE
    ../clib/signal.c                         0x00000000   Number         0  defsig_fpe_formal.o ABSOLUTE
    ../clib/signal.c                         0x00000000   Number         0  defsig_exit.o ABSOLUTE
    ../clib/signal.c                         0x00000000   Number         0  defsig_fpe_inner.o ABSOLUTE
    ../clib/signal.c                         0x00000000   Number         0  __raise.o ABSOLUTE
    ../clib/signal.c                         0x00000000   Number         0  defsig_general.o ABSOLUTE
    ../clib/signal.c                         0x00000000   Number         0  defsig_abrt_inner.o ABSOLUTE
    ../clib/signal.c                         0x00000000   Number         0  defsig_rtred_inner.o ABSOLUTE
    ../clib/signal.c                         0x00000000   Number         0  defsig_rtmem_inner.o ABSOLUTE
    ../clib/signal.c                         0x00000000   Number         0  defsig_rtmem_outer.o ABSOLUTE
    ../clib/signal.c                         0x00000000   Number         0  defsig_rtmem_formal.o ABSOLUTE
    ../clib/signal.c                         0x00000000   Number         0  defsig_stak_inner.o ABSOLUTE
    ../clib/signal.c                         0x00000000   Number         0  defsig_pvfn_inner.o ABSOLUTE
    ../clib/signal.c                         0x00000000   Number         0  defsig_cppl_inner.o ABSOLUTE
    ../clib/signal.c                         0x00000000   Number         0  defsig_segv_inner.o ABSOLUTE
    ../clib/signal.c                         0x00000000   Number         0  defsig_other.o ABSOLUTE
    ../clib/signal.s                         0x00000000   Number         0  defsig.o ABSOLUTE
    ../clib/stdlib.c                         0x00000000   Number         0  exit.o ABSOLUTE
    ../fplib/cfplib/cmp.c                    0x00000000   Number         0  fcmp.o ABSOLUTE
    ../fplib/cfplib/cmpret.c                 0x00000000   Number         0  cmpret.o ABSOLUTE
    ../fplib/cfplib/d2f.c                    0x00000000   Number         0  d2f.o ABSOLUTE
    ../fplib/cfplib/daddsub.c                0x00000000   Number         0  daddsub.o ABSOLUTE
    ../fplib/cfplib/dcmpin.c                 0x00000000   Number         0  dcmpin.o ABSOLUTE
    ../fplib/cfplib/ddiv.c                   0x00000000   Number         0  ddiv.o ABSOLUTE
    ../fplib/cfplib/dmul.c                   0x00000000   Number         0  dmul.o ABSOLUTE
    ../fplib/cfplib/f2d.c                    0x00000000   Number         0  f2d.o ABSOLUTE
    ../fplib/cfplib/fcmpin.c                 0x00000000   Number         0  fcmpin.o ABSOLUTE
    ../fplib/cfplib/fdiv.c                   0x00000000   Number         0  fdiv.o ABSOLUTE
    ../fplib/cfplib/ffix.c                   0x00000000   Number         0  dfixi.o ABSOLUTE
    ../fplib/cfplib/ffix.c                   0x00000000   Number         0  ffixi.o ABSOLUTE
    ../fplib/cfplib/ffix.c                   0x00000000   Number         0  ffixui.o ABSOLUTE
    ../fplib/cfplib/fflt.c                   0x00000000   Number         0  dflti.o ABSOLUTE
    ../fplib/cfplib/fflt.c                   0x00000000   Number         0  fflti.o ABSOLUTE
    ../fplib/cfplib/fpinit.c                 0x00000000   Number         0  fpinit.o ABSOLUTE
    ../fplib/cfplib/nan2.c                   0x00000000   Number         0  dnan2.o ABSOLUTE
    ../fplib/cfplib/nan2.c                   0x00000000   Number         0  fnan2.o ABSOLUTE
    ../fplib/cfplib/retnan.c                 0x00000000   Number         0  retnan.o ABSOLUTE
    ../fplib/drleqf6m.s                      0x00000000   Number         0  drlef.o ABSOLUTE
    ../fplib/faddsub6m.s                     0x00000000   Number         0  faddsub.o ABSOLUTE
    ../fplib/feqf6m.s                        0x00000000   Number         0  feqf.o ABSOLUTE
    ../fplib/fgeqf6m.s                       0x00000000   Number         0  fgef.o ABSOLUTE
    ../fplib/fleqf6m.s                       0x00000000   Number         0  flef.o ABSOLUTE
    ../fplib/fmul6m.s                        0x00000000   Number         0  fmul.o ABSOLUTE
    ../fplib/usenofp.s                       0x00000000   Number         0  usenofp.o ABSOLUTE
    ../mathlib/floor.c                       0x00000000   Number         0  floor.o ABSOLUTE
    Keyboard.c                               0x00000000   Number         0  keyboard.o ABSOLUTE
    MPU6500_SPI.c                            0x00000000   Number         0  mpu6500_spi.o ABSOLUTE
    MusicPlayer.c                            0x00000000   Number         0  musicplayer.o ABSOLUTE
    PWM.c                                    0x00000000   Number         0  pwm.o ABSOLUTE
    UART.c                                   0x00000000   Number         0  uart.o ABSOLUTE
    dc.s                                     0x00000000   Number         0  dc.o ABSOLUTE
    dl_adc12.c                               0x00000000   Number         0  dl_adc12.o ABSOLUTE
    dl_aes.c                                 0x00000000   Number         0  dl_aes.o ABSOLUTE
    dl_common.c                              0x00000000   Number         0  dl_common.o ABSOLUTE
    dl_crc.c                                 0x00000000   Number         0  dl_crc.o ABSOLUTE
    dl_dac12.c                               0x00000000   Number         0  dl_dac12.o ABSOLUTE
    dl_dma.c                                 0x00000000   Number         0  dl_dma.o ABSOLUTE
    dl_flashctl.c                            0x00000000   Number         0  dl_flashctl.o ABSOLUTE
    dl_i2c.c                                 0x00000000   Number         0  dl_i2c.o ABSOLUTE
    dl_interrupt.c                           0x00000000   Number         0  dl_interrupt.o ABSOLUTE
    dl_mathacl.c                             0x00000000   Number         0  dl_mathacl.o ABSOLUTE
    dl_mcan.c                                0x00000000   Number         0  dl_mcan.o ABSOLUTE
    dl_opa.c                                 0x00000000   Number         0  dl_opa.o ABSOLUTE
    dl_rtc.c                                 0x00000000   Number         0  dl_rtc.o ABSOLUTE
    dl_spi.c                                 0x00000000   Number         0  dl_spi.o ABSOLUTE
    dl_sysctl_mspm0g1x0x_g3x0x.c             0x00000000   Number         0  dl_sysctl_mspm0g1x0x_g3x0x.o ABSOLUTE
    dl_timer.c                               0x00000000   Number         0  dl_timer.o ABSOLUTE
    dl_trng.c                                0x00000000   Number         0  dl_trng.o ABSOLUTE
    dl_uart.c                                0x00000000   Number         0  dl_uart.o ABSOLUTE
    dl_vref.c                                0x00000000   Number         0  dl_vref.o ABSOLUTE
    eeprom_emulation_type_a.c                0x00000000   Number         0  eeprom_emulation_type_a.o ABSOLUTE
    main.c                                   0x00000000   Number         0  main.o ABSOLUTE
    oled.c                                   0x00000000   Number         0  oled.o ABSOLUTE
    pid.c                                    0x00000000   Number         0  pid.o ABSOLUTE
    startup_mspm0g3507_uvision.s             0x00000000   Number         0  startup_mspm0g3507_uvision.o ABSOLUTE
    ti_msp_dl_config.c                       0x00000000   Number         0  ti_msp_dl_config.o ABSOLUTE
    RESET                                    0x00000000   Section      192  startup_mspm0g3507_uvision.o(RESET)
    !!!main                                  0x000000c0   Section        8  __main.o(!!!main)
    !!!scatter                               0x000000c8   Section       84  __scatter.o(!!!scatter)
    !!handler_copy                           0x00000120   Section       26  __scatter_copy.o(!!handler_copy)
    !!handler_null                           0x00000140   Section        2  __scatter.o(!!handler_null)
    !!handler_zi                             0x00000148   Section       28  __scatter_zi.o(!!handler_zi)
    .ARM.Collect$$libinit$$00000000          0x00000164   Section        2  libinit.o(.ARM.Collect$$libinit$$00000000)
    .ARM.Collect$$libinit$$00000002          0x00000166   Section        0  libinit2.o(.ARM.Collect$$libinit$$00000002)
    .ARM.Collect$$libinit$$00000004          0x00000166   Section        0  libinit2.o(.ARM.Collect$$libinit$$00000004)
    .ARM.Collect$$libinit$$00000006          0x00000166   Section        0  libinit2.o(.ARM.Collect$$libinit$$00000006)
    .ARM.Collect$$libinit$$0000000C          0x00000166   Section        0  libinit2.o(.ARM.Collect$$libinit$$0000000C)
    .ARM.Collect$$libinit$$0000000E          0x00000166   Section        0  libinit2.o(.ARM.Collect$$libinit$$0000000E)
    .ARM.Collect$$libinit$$00000010          0x00000166   Section        0  libinit2.o(.ARM.Collect$$libinit$$00000010)
    .ARM.Collect$$libinit$$00000013          0x00000166   Section        0  libinit2.o(.ARM.Collect$$libinit$$00000013)
    .ARM.Collect$$libinit$$00000015          0x00000166   Section        0  libinit2.o(.ARM.Collect$$libinit$$00000015)
    .ARM.Collect$$libinit$$00000017          0x00000166   Section        0  libinit2.o(.ARM.Collect$$libinit$$00000017)
    .ARM.Collect$$libinit$$00000019          0x00000166   Section        0  libinit2.o(.ARM.Collect$$libinit$$00000019)
    .ARM.Collect$$libinit$$0000001B          0x00000166   Section        0  libinit2.o(.ARM.Collect$$libinit$$0000001B)
    .ARM.Collect$$libinit$$0000001D          0x00000166   Section        0  libinit2.o(.ARM.Collect$$libinit$$0000001D)
    .ARM.Collect$$libinit$$0000001F          0x00000166   Section        0  libinit2.o(.ARM.Collect$$libinit$$0000001F)
    .ARM.Collect$$libinit$$00000021          0x00000166   Section        0  libinit2.o(.ARM.Collect$$libinit$$00000021)
    .ARM.Collect$$libinit$$00000023          0x00000166   Section        0  libinit2.o(.ARM.Collect$$libinit$$00000023)
    .ARM.Collect$$libinit$$00000025          0x00000166   Section        0  libinit2.o(.ARM.Collect$$libinit$$00000025)
    .ARM.Collect$$libinit$$00000027          0x00000166   Section        0  libinit2.o(.ARM.Collect$$libinit$$00000027)
    .ARM.Collect$$libinit$$0000002E          0x00000166   Section        0  libinit2.o(.ARM.Collect$$libinit$$0000002E)
    .ARM.Collect$$libinit$$00000030          0x00000166   Section        0  libinit2.o(.ARM.Collect$$libinit$$00000030)
    .ARM.Collect$$libinit$$00000032          0x00000166   Section        0  libinit2.o(.ARM.Collect$$libinit$$00000032)
    .ARM.Collect$$libinit$$00000034          0x00000166   Section        0  libinit2.o(.ARM.Collect$$libinit$$00000034)
    .ARM.Collect$$libinit$$00000035          0x00000166   Section        2  libinit2.o(.ARM.Collect$$libinit$$00000035)
    .ARM.Collect$$libshutdown$$00000000      0x00000168   Section        2  libshutdown.o(.ARM.Collect$$libshutdown$$00000000)
    .ARM.Collect$$libshutdown$$00000002      0x0000016a   Section        0  libshutdown2.o(.ARM.Collect$$libshutdown$$00000002)
    .ARM.Collect$$libshutdown$$00000004      0x0000016a   Section        0  libshutdown2.o(.ARM.Collect$$libshutdown$$00000004)
    .ARM.Collect$$libshutdown$$00000007      0x0000016a   Section        0  libshutdown2.o(.ARM.Collect$$libshutdown$$00000007)
    .ARM.Collect$$libshutdown$$0000000A      0x0000016a   Section        0  libshutdown2.o(.ARM.Collect$$libshutdown$$0000000A)
    .ARM.Collect$$libshutdown$$0000000C      0x0000016a   Section        0  libshutdown2.o(.ARM.Collect$$libshutdown$$0000000C)
    .ARM.Collect$$libshutdown$$0000000F      0x0000016a   Section        0  libshutdown2.o(.ARM.Collect$$libshutdown$$0000000F)
    .ARM.Collect$$libshutdown$$00000010      0x0000016a   Section        2  libshutdown2.o(.ARM.Collect$$libshutdown$$00000010)
    .ARM.Collect$$rtentry$$00000000          0x0000016c   Section        0  __rtentry.o(.ARM.Collect$$rtentry$$00000000)
    .ARM.Collect$$rtentry$$00000002          0x0000016c   Section        0  __rtentry2.o(.ARM.Collect$$rtentry$$00000002)
    .ARM.Collect$$rtentry$$00000004          0x0000016c   Section        6  __rtentry4.o(.ARM.Collect$$rtentry$$00000004)
    .ARM.Collect$$rtentry$$00000009          0x00000172   Section        0  __rtentry2.o(.ARM.Collect$$rtentry$$00000009)
    .ARM.Collect$$rtentry$$0000000A          0x00000172   Section        4  __rtentry2.o(.ARM.Collect$$rtentry$$0000000A)
    .ARM.Collect$$rtentry$$0000000C          0x00000176   Section        0  __rtentry2.o(.ARM.Collect$$rtentry$$0000000C)
    .ARM.Collect$$rtentry$$0000000D          0x00000176   Section        8  __rtentry2.o(.ARM.Collect$$rtentry$$0000000D)
    .ARM.Collect$$rtexit$$00000000           0x0000017e   Section        2  rtexit.o(.ARM.Collect$$rtexit$$00000000)
    .ARM.Collect$$rtexit$$00000002           0x00000180   Section        0  rtexit2.o(.ARM.Collect$$rtexit$$00000002)
    .ARM.Collect$$rtexit$$00000003           0x00000180   Section        4  rtexit2.o(.ARM.Collect$$rtexit$$00000003)
    .ARM.Collect$$rtexit$$00000004           0x00000184   Section        6  rtexit2.o(.ARM.Collect$$rtexit$$00000004)
    .text                                    0x0000018c   Section       44  startup_mspm0g3507_uvision.o(.text)
    .text                                    0x000001b8   Section      504  aeabi_sdivfast.o(.text)
    .text                                    0x000003b0   Section        0  heapauxi.o(.text)
    .text                                    0x000003b8   Section        0  d2f.o(.text)
    _dadd1                                   0x00000435   Thumb Code   290  daddsub.o(.text)
    .text                                    0x00000434   Section        0  daddsub.o(.text)
    _dsub1                                   0x00000557   Thumb Code   470  daddsub.o(.text)
    .text                                    0x0000078c   Section        0  ddiv.o(.text)
    .text                                    0x00000bd4   Section        0  dfixi.o(.text)
    .text                                    0x00000c40   Section        0  dflti.o(.text)
    .text                                    0x00000c98   Section        0  dmul.o(.text)
    .text                                    0x00000ee0   Section        0  f2d.o(.text)
    .text                                    0x00000f34   Section        0  fdiv.o(.text)
    .text                                    0x00001094   Section        0  ffixi.o(.text)
    .text                                    0x000010e0   Section        0  ffixui.o(.text)
    .text                                    0x00001110   Section        0  fflti.o(.text)
    .text                                    0x00001170   Section        0  dcmpin.o(.text)
    .text                                    0x00001210   Section        0  fcmpin.o(.text)
    .text                                    0x00001274   Section       62  sys_stackheap_outer.o(.text)
    .text                                    0x000012b2   Section        0  exit.o(.text)
    .text                                    0x000012c2   Section        0  cmpret.o(.text)
    .text                                    0x000012f0   Section        0  dnan2.o(.text)
    .text                                    0x00001304   Section        0  fnan2.o(.text)
    .text                                    0x00001314   Section        8  libspace.o(.text)
    .text                                    0x0000131c   Section        0  retnan.o(.text)
    .text                                    0x0000137c   Section        0  sys_exit.o(.text)
    .text                                    0x00001388   Section        2  use_no_semi.o(.text)
    [Anonymous Symbol]                       0x0000138a   Section        0  dl_common.o(.text.DL_Common_delayCycles)
    .text                                    0x0000138a   Section        0  indicate_semi.o(.text)
    DL_Common_delayCyclesLoop                0x0000138c   Number         0  dl_common.o(.text.DL_Common_delayCycles)
    [Anonymous Symbol]                       0x00001394   Section        0  dl_flashctl.o(.text.DL_FlashCTL_eraseMemoryFromRAM)
    [Anonymous Symbol]                       0x000013a8   Section        0  dl_flashctl.o(.text.DL_FlashCTL_programMemoryBlockingFromRAM64WithECCGenerated)
    [Anonymous Symbol]                       0x00001404   Section        0  dl_flashctl.o(.text.DL_FlashCTL_programMemoryFromRAM64)
    [Anonymous Symbol]                       0x00001424   Section        0  dl_flashctl.o(.text.DL_FlashCTL_programMemoryFromRAM64WithECCGenerated)
    __arm_cp.29_0                            0x00001444   Number         4  dl_flashctl.o(.text.DL_FlashCTL_programMemoryFromRAM64WithECCGenerated)
    __arm_cp.29_1                            0x00001448   Number         4  dl_flashctl.o(.text.DL_FlashCTL_programMemoryFromRAM64WithECCGenerated)
    [Anonymous Symbol]                       0x0000144c   Section        0  dl_flashctl.o(.text.DL_FlashCTL_unprotectSector)
    __arm_cp.39_1                            0x0000151c   Number         4  dl_flashctl.o(.text.DL_FlashCTL_unprotectSector)
    __arm_cp.39_2                            0x00001520   Number         4  dl_flashctl.o(.text.DL_FlashCTL_unprotectSector)
    __arm_cp.39_3                            0x00001524   Number         4  dl_flashctl.o(.text.DL_FlashCTL_unprotectSector)
    [Anonymous Symbol]                       0x00001528   Section        0  dl_spi.o(.text.DL_SPI_init)
    __arm_cp.0_0                             0x00001564   Number         4  dl_spi.o(.text.DL_SPI_init)
    __arm_cp.0_1                             0x00001568   Number         4  dl_spi.o(.text.DL_SPI_init)
    [Anonymous Symbol]                       0x0000156c   Section        0  dl_spi.o(.text.DL_SPI_receiveDataBlocking8)
    [Anonymous Symbol]                       0x00001590   Section        0  dl_spi.o(.text.DL_SPI_setClockConfig)
    [Anonymous Symbol]                       0x000015a4   Section        0  dl_spi.o(.text.DL_SPI_transmitDataBlocking8)
    __arm_cp.6_0                             0x000015c4   Number         4  dl_spi.o(.text.DL_SPI_transmitDataBlocking8)
    [Anonymous Symbol]                       0x000015c8   Section        0  dl_sysctl_mspm0g1x0x_g3x0x.o(.text.DL_SYSCTL_configSYSPLL)
    __arm_cp.0_0                             0x000016a4   Number         4  dl_sysctl_mspm0g1x0x_g3x0x.o(.text.DL_SYSCTL_configSYSPLL)
    __arm_cp.0_2                             0x000016a8   Number         4  dl_sysctl_mspm0g1x0x_g3x0x.o(.text.DL_SYSCTL_configSYSPLL)
    __arm_cp.0_3                             0x000016ac   Number         4  dl_sysctl_mspm0g1x0x_g3x0x.o(.text.DL_SYSCTL_configSYSPLL)
    __arm_cp.0_4                             0x000016b0   Number         4  dl_sysctl_mspm0g1x0x_g3x0x.o(.text.DL_SYSCTL_configSYSPLL)
    [Anonymous Symbol]                       0x000016b4   Section        0  dl_sysctl_mspm0g1x0x_g3x0x.o(.text.DL_SYSCTL_switchMCLKfromSYSOSCtoHSCLK)
    __arm_cp.4_0                             0x000016fc   Number         4  dl_sysctl_mspm0g1x0x_g3x0x.o(.text.DL_SYSCTL_switchMCLKfromSYSOSCtoHSCLK)
    __arm_cp.4_1                             0x00001700   Number         4  dl_sysctl_mspm0g1x0x_g3x0x.o(.text.DL_SYSCTL_switchMCLKfromSYSOSCtoHSCLK)
    [Anonymous Symbol]                       0x00001704   Section        0  dl_timer.o(.text.DL_TimerA_initPWMMode)
    __arm_cp.31_0                            0x00001770   Number         4  dl_timer.o(.text.DL_TimerA_initPWMMode)
    [Anonymous Symbol]                       0x00001774   Section        0  dl_timer.o(.text.DL_Timer_initPWMMode)
    __arm_cp.11_1                            0x00001820   Number         4  dl_timer.o(.text.DL_Timer_initPWMMode)
    __arm_cp.11_2                            0x00001824   Number         4  dl_timer.o(.text.DL_Timer_initPWMMode)
    __arm_cp.11_3                            0x00001828   Number         4  dl_timer.o(.text.DL_Timer_initPWMMode)
    __arm_cp.11_4                            0x0000182c   Number         4  dl_timer.o(.text.DL_Timer_initPWMMode)
    __arm_cp.11_6                            0x00001830   Number         4  dl_timer.o(.text.DL_Timer_initPWMMode)
    [Anonymous Symbol]                       0x00001834   Section        0  dl_timer.o(.text.DL_Timer_initTimerMode)
    __arm_cp.2_0                             0x00001910   Number         4  dl_timer.o(.text.DL_Timer_initTimerMode)
    __arm_cp.2_1                             0x00001914   Number         4  dl_timer.o(.text.DL_Timer_initTimerMode)
    __arm_cp.2_2                             0x00001918   Number         4  dl_timer.o(.text.DL_Timer_initTimerMode)
    [Anonymous Symbol]                       0x0000191c   Section        0  dl_timer.o(.text.DL_Timer_setCaptCompUpdateMethod)
    __arm_cp.18_0                            0x00001934   Number         4  dl_timer.o(.text.DL_Timer_setCaptCompUpdateMethod)
    [Anonymous Symbol]                       0x00001938   Section        0  dl_timer.o(.text.DL_Timer_setCaptureCompareOutCtl)
    __arm_cp.13_0                            0x0000194c   Number         4  dl_timer.o(.text.DL_Timer_setCaptureCompareOutCtl)
    [Anonymous Symbol]                       0x00001950   Section        0  dl_timer.o(.text.DL_Timer_setCaptureCompareValue)
    __arm_cp.3_0                             0x0000195c   Number         4  dl_timer.o(.text.DL_Timer_setCaptureCompareValue)
    [Anonymous Symbol]                       0x00001960   Section        0  dl_timer.o(.text.DL_Timer_setClockConfig)
    __arm_cp.0_0                             0x00001978   Number         4  dl_timer.o(.text.DL_Timer_setClockConfig)
    [Anonymous Symbol]                       0x0000197c   Section        0  dl_uart.o(.text.DL_UART_init)
    __arm_cp.0_0                             0x000019bc   Number         4  dl_uart.o(.text.DL_UART_init)
    __arm_cp.0_1                             0x000019c0   Number         4  dl_uart.o(.text.DL_UART_init)
    [Anonymous Symbol]                       0x000019c4   Section        0  dl_uart.o(.text.DL_UART_setClockConfig)
    [Anonymous Symbol]                       0x000019d8   Section        0  eeprom_emulation_type_a.o(.text.EEPROM_TypeA_init)
    __arm_cp.1_0                             0x00001acc   Number         4  eeprom_emulation_type_a.o(.text.EEPROM_TypeA_init)
    __arm_cp.1_2                             0x00001ad0   Number         4  eeprom_emulation_type_a.o(.text.EEPROM_TypeA_init)
    [Anonymous Symbol]                       0x00001ad4   Section        0  eeprom_emulation_type_a.o(.text.EEPROM_TypeA_repairFormat)
    __arm_cp.4_2                             0x00001bec   Number         4  eeprom_emulation_type_a.o(.text.EEPROM_TypeA_repairFormat)
    __arm_cp.4_4                             0x00001bf0   Number         4  eeprom_emulation_type_a.o(.text.EEPROM_TypeA_repairFormat)
    [Anonymous Symbol]                       0x00001bf4   Section        0  eeprom_emulation_type_a.o(.text.EEPROM_TypeA_searchCheck)
    __arm_cp.2_0                             0x00001e1c   Number         4  eeprom_emulation_type_a.o(.text.EEPROM_TypeA_searchCheck)
    __arm_cp.2_1                             0x00001e20   Number         4  eeprom_emulation_type_a.o(.text.EEPROM_TypeA_searchCheck)
    __arm_cp.2_2                             0x00001e24   Number         4  eeprom_emulation_type_a.o(.text.EEPROM_TypeA_searchCheck)
    __arm_cp.2_3                             0x00001e28   Number         4  eeprom_emulation_type_a.o(.text.EEPROM_TypeA_searchCheck)
    __arm_cp.2_4                             0x00001e2c   Number         4  eeprom_emulation_type_a.o(.text.EEPROM_TypeA_searchCheck)
    __arm_cp.2_5                             0x00001e30   Number         4  eeprom_emulation_type_a.o(.text.EEPROM_TypeA_searchCheck)
    __arm_cp.2_6                             0x00001e34   Number         4  eeprom_emulation_type_a.o(.text.EEPROM_TypeA_searchCheck)
    [Anonymous Symbol]                       0x00001e38   Section        0  main.o(.text.GROUP1_IRQHandler)
    __arm_cp.5_0                             0x00001e60   Number         4  main.o(.text.GROUP1_IRQHandler)
    __arm_cp.5_2                             0x00001e64   Number         4  main.o(.text.GROUP1_IRQHandler)
    __arm_cp.5_3                             0x00001e68   Number         4  main.o(.text.GROUP1_IRQHandler)
    [Anonymous Symbol]                       0x00001e6c   Section        0  keyboard.o(.text.KeySCInput)
    __arm_cp.1_1                             0x0000206c   Number         4  keyboard.o(.text.KeySCInput)
    [Anonymous Symbol]                       0x00002070   Section        0  keyboard.o(.text.Keyboard_init)
    __arm_cp.0_0                             0x00002088   Number         4  keyboard.o(.text.Keyboard_init)
    [Anonymous Symbol]                       0x0000208c   Section        0  mpu6500_spi.o(.text.MPU6500_Calibration)
    __arm_cp.7_0                             0x0000228c   Number         4  mpu6500_spi.o(.text.MPU6500_Calibration)
    __arm_cp.7_1                             0x00002290   Number         4  mpu6500_spi.o(.text.MPU6500_Calibration)
    __arm_cp.7_2                             0x00002294   Number         4  mpu6500_spi.o(.text.MPU6500_Calibration)
    __arm_cp.7_3                             0x00002298   Number         4  mpu6500_spi.o(.text.MPU6500_Calibration)
    __arm_cp.7_4                             0x0000229c   Number         4  mpu6500_spi.o(.text.MPU6500_Calibration)
    __arm_cp.7_5                             0x000022a0   Number         4  mpu6500_spi.o(.text.MPU6500_Calibration)
    __arm_cp.7_6                             0x000022a4   Number         4  mpu6500_spi.o(.text.MPU6500_Calibration)
    __arm_cp.7_7                             0x000022a8   Number         4  mpu6500_spi.o(.text.MPU6500_Calibration)
    __arm_cp.7_9                             0x000022bc   Number         4  mpu6500_spi.o(.text.MPU6500_Calibration)
    [Anonymous Symbol]                       0x000022c0   Section        0  mpu6500_spi.o(.text.MPU6500_Init)
    __arm_cp.4_0                             0x0000244c   Number         4  mpu6500_spi.o(.text.MPU6500_Init)
    __arm_cp.4_1                             0x00002450   Number         4  mpu6500_spi.o(.text.MPU6500_Init)
    __arm_cp.4_2                             0x00002454   Number         4  mpu6500_spi.o(.text.MPU6500_Init)
    __arm_cp.4_3                             0x00002458   Number         4  mpu6500_spi.o(.text.MPU6500_Init)
    __arm_cp.4_4                             0x0000245c   Number         4  mpu6500_spi.o(.text.MPU6500_Init)
    __arm_cp.4_5                             0x00002460   Number         4  mpu6500_spi.o(.text.MPU6500_Init)
    __arm_cp.4_7                             0x00002464   Number         4  mpu6500_spi.o(.text.MPU6500_Init)
    [Anonymous Symbol]                       0x00002468   Section        0  mpu6500_spi.o(.text.MPU6500_getData)
    __arm_cp.18_0                            0x000026c0   Number         4  mpu6500_spi.o(.text.MPU6500_getData)
    __arm_cp.18_1                            0x000026c4   Number         4  mpu6500_spi.o(.text.MPU6500_getData)
    __arm_cp.18_8                            0x000026c8   Number         4  mpu6500_spi.o(.text.MPU6500_getData)
    __arm_cp.18_9                            0x000026cc   Number         4  mpu6500_spi.o(.text.MPU6500_getData)
    __arm_cp.18_10                           0x000026d0   Number         4  mpu6500_spi.o(.text.MPU6500_getData)
    __arm_cp.18_12                           0x000026d4   Number         4  mpu6500_spi.o(.text.MPU6500_getData)
    __arm_cp.18_13                           0x000026d8   Number         4  mpu6500_spi.o(.text.MPU6500_getData)
    __arm_cp.18_14                           0x000026dc   Number         4  mpu6500_spi.o(.text.MPU6500_getData)
    [Anonymous Symbol]                       0x000026e0   Section        0  mpu6500_spi.o(.text.MPU6500_getRawData)
    __arm_cp.17_0                            0x00002904   Number         4  mpu6500_spi.o(.text.MPU6500_getRawData)
    __arm_cp.17_1                            0x00002908   Number         4  mpu6500_spi.o(.text.MPU6500_getRawData)
    __arm_cp.17_2                            0x0000290c   Number         4  mpu6500_spi.o(.text.MPU6500_getRawData)
    __arm_cp.17_3                            0x00002910   Number         4  mpu6500_spi.o(.text.MPU6500_getRawData)
    __arm_cp.17_4                            0x00002914   Number         4  mpu6500_spi.o(.text.MPU6500_getRawData)
    __arm_cp.17_5                            0x00002918   Number         4  mpu6500_spi.o(.text.MPU6500_getRawData)
    __arm_cp.17_6                            0x0000291c   Number         4  mpu6500_spi.o(.text.MPU6500_getRawData)
    __arm_cp.17_7                            0x00002920   Number         4  mpu6500_spi.o(.text.MPU6500_getRawData)
    __arm_cp.17_8                            0x00002924   Number         4  mpu6500_spi.o(.text.MPU6500_getRawData)
    [Anonymous Symbol]                       0x00002928   Section        0  musicplayer.o(.text.MusicPlayer_init)
    __arm_cp.0_0                             0x0000294c   Number         4  musicplayer.o(.text.MusicPlayer_init)
    __arm_cp.0_1                             0x00002950   Number         4  musicplayer.o(.text.MusicPlayer_init)
    __arm_cp.0_2                             0x00002954   Number         4  musicplayer.o(.text.MusicPlayer_init)
    __arm_cp.0_3                             0x00002958   Number         4  musicplayer.o(.text.MusicPlayer_init)
    [Anonymous Symbol]                       0x0000295c   Section        0  oled.o(.text.OLED_Clear)
    __arm_cp.5_0                             0x00002af0   Number         4  oled.o(.text.OLED_Clear)
    [Anonymous Symbol]                       0x00002af4   Section        0  oled.o(.text.OLED_DrawBMP)
    [Anonymous Symbol]                       0x00002b6c   Section        0  oled.o(.text.OLED_Init)
    __arm_cp.13_1                            0x00002f6c   Number         4  oled.o(.text.OLED_Init)
    [Anonymous Symbol]                       0x00003298   Section        0  oled.o(.text.OLED_ShowChar)
    __arm_cp.6_0                             0x00003388   Number         4  oled.o(.text.OLED_ShowChar)
    [Anonymous Symbol]                       0x0000338c   Section        0  oled.o(.text.OLED_ShowNum)
    [Anonymous Symbol]                       0x00003468   Section        0  oled.o(.text.OLED_ShowSignedNum)
    __arm_cp.9_0                             0x00003568   Number         4  oled.o(.text.OLED_ShowSignedNum)
    [Anonymous Symbol]                       0x0000356c   Section        0  oled.o(.text.OLED_ShowString)
    [Anonymous Symbol]                       0x000035b4   Section        0  oled.o(.text.OLED_WR_Byte)
    __arm_cp.1_0                             0x00003648   Number         4  oled.o(.text.OLED_WR_Byte)
    [Anonymous Symbol]                       0x0000364c   Section        0  pid.o(.text.PID_Cal_Inc)
    [Anonymous Symbol]                       0x000036b6   Section        0  pid.o(.text.PID_Cal_Pos)
    [Anonymous Symbol]                       0x00003758   Section        0  pwm.o(.text.PWM_init)
    __arm_cp.0_0                             0x000037a0   Number         4  pwm.o(.text.PWM_init)
    __arm_cp.0_1                             0x000037a4   Number         4  pwm.o(.text.PWM_init)
    __arm_cp.0_2                             0x000037a8   Number         4  pwm.o(.text.PWM_init)
    __arm_cp.0_3                             0x000037ac   Number         4  pwm.o(.text.PWM_init)
    [Anonymous Symbol]                       0x000037b0   Section        0  ti_msp_dl_config.o(.text.SYSCFG_DL_GPIO_init)
    __arm_cp.2_0                             0x00003854   Number         4  ti_msp_dl_config.o(.text.SYSCFG_DL_GPIO_init)
    __arm_cp.2_1                             0x00003858   Number         4  ti_msp_dl_config.o(.text.SYSCFG_DL_GPIO_init)
    __arm_cp.2_2                             0x0000385c   Number         4  ti_msp_dl_config.o(.text.SYSCFG_DL_GPIO_init)
    __arm_cp.2_3                             0x00003860   Number         4  ti_msp_dl_config.o(.text.SYSCFG_DL_GPIO_init)
    __arm_cp.2_4                             0x00003864   Number         4  ti_msp_dl_config.o(.text.SYSCFG_DL_GPIO_init)
    __arm_cp.2_5                             0x00003868   Number         4  ti_msp_dl_config.o(.text.SYSCFG_DL_GPIO_init)
    __arm_cp.2_6                             0x0000386c   Number         4  ti_msp_dl_config.o(.text.SYSCFG_DL_GPIO_init)
    __arm_cp.2_7                             0x00003870   Number         4  ti_msp_dl_config.o(.text.SYSCFG_DL_GPIO_init)
    __arm_cp.2_8                             0x00003874   Number         4  ti_msp_dl_config.o(.text.SYSCFG_DL_GPIO_init)
    [Anonymous Symbol]                       0x00003878   Section        0  ti_msp_dl_config.o(.text.SYSCFG_DL_MOTOR_init)
    __arm_cp.5_0                             0x00003900   Number         4  ti_msp_dl_config.o(.text.SYSCFG_DL_MOTOR_init)
    __arm_cp.5_1                             0x00003904   Number         4  ti_msp_dl_config.o(.text.SYSCFG_DL_MOTOR_init)
    __arm_cp.5_2                             0x00003908   Number         4  ti_msp_dl_config.o(.text.SYSCFG_DL_MOTOR_init)
    __arm_cp.5_3                             0x0000390c   Number         4  ti_msp_dl_config.o(.text.SYSCFG_DL_MOTOR_init)
    __arm_cp.5_4                             0x00003910   Number         4  ti_msp_dl_config.o(.text.SYSCFG_DL_MOTOR_init)
    [Anonymous Symbol]                       0x00003914   Section        0  ti_msp_dl_config.o(.text.SYSCFG_DL_MPU_init)
    __arm_cp.10_0                            0x0000394c   Number         4  ti_msp_dl_config.o(.text.SYSCFG_DL_MPU_init)
    __arm_cp.10_1                            0x00003950   Number         4  ti_msp_dl_config.o(.text.SYSCFG_DL_MPU_init)
    __arm_cp.10_2                            0x00003954   Number         4  ti_msp_dl_config.o(.text.SYSCFG_DL_MPU_init)
    __arm_cp.10_3                            0x00003958   Number         4  ti_msp_dl_config.o(.text.SYSCFG_DL_MPU_init)
    __arm_cp.10_4                            0x0000395c   Number         4  ti_msp_dl_config.o(.text.SYSCFG_DL_MPU_init)
    [Anonymous Symbol]                       0x00003960   Section        0  ti_msp_dl_config.o(.text.SYSCFG_DL_PWM_0_init)
    __arm_cp.4_0                             0x000039e8   Number         4  ti_msp_dl_config.o(.text.SYSCFG_DL_PWM_0_init)
    __arm_cp.4_1                             0x000039ec   Number         4  ti_msp_dl_config.o(.text.SYSCFG_DL_PWM_0_init)
    __arm_cp.4_2                             0x000039f0   Number         4  ti_msp_dl_config.o(.text.SYSCFG_DL_PWM_0_init)
    __arm_cp.4_3                             0x000039f4   Number         4  ti_msp_dl_config.o(.text.SYSCFG_DL_PWM_0_init)
    __arm_cp.4_4                             0x000039f8   Number         4  ti_msp_dl_config.o(.text.SYSCFG_DL_PWM_0_init)
    [Anonymous Symbol]                       0x000039fc   Section        0  ti_msp_dl_config.o(.text.SYSCFG_DL_SYSCTL_init)
    __arm_cp.3_0                             0x00003a68   Number         4  ti_msp_dl_config.o(.text.SYSCFG_DL_SYSCTL_init)
    __arm_cp.3_1                             0x00003a6c   Number         4  ti_msp_dl_config.o(.text.SYSCFG_DL_SYSCTL_init)
    __arm_cp.3_2                             0x00003a70   Number         4  ti_msp_dl_config.o(.text.SYSCFG_DL_SYSCTL_init)
    __arm_cp.3_3                             0x00003a74   Number         4  ti_msp_dl_config.o(.text.SYSCFG_DL_SYSCTL_init)
    [Anonymous Symbol]                       0x00003a78   Section        0  ti_msp_dl_config.o(.text.SYSCFG_DL_SYSTICK_init)
    __arm_cp.11_0                            0x00003a90   Number         4  ti_msp_dl_config.o(.text.SYSCFG_DL_SYSTICK_init)
    __arm_cp.11_1                            0x00003a94   Number         4  ti_msp_dl_config.o(.text.SYSCFG_DL_SYSTICK_init)
    [Anonymous Symbol]                       0x00003a98   Section        0  ti_msp_dl_config.o(.text.SYSCFG_DL_Servo_init)
    __arm_cp.6_1                             0x00003b1c   Number         4  ti_msp_dl_config.o(.text.SYSCFG_DL_Servo_init)
    __arm_cp.6_2                             0x00003b20   Number         4  ti_msp_dl_config.o(.text.SYSCFG_DL_Servo_init)
    __arm_cp.6_3                             0x00003b24   Number         4  ti_msp_dl_config.o(.text.SYSCFG_DL_Servo_init)
    __arm_cp.6_4                             0x00003b28   Number         4  ti_msp_dl_config.o(.text.SYSCFG_DL_Servo_init)
    [Anonymous Symbol]                       0x00003b2c   Section        0  ti_msp_dl_config.o(.text.SYSCFG_DL_TIMER_1ms_init)
    __arm_cp.8_0                             0x00003b60   Number         4  ti_msp_dl_config.o(.text.SYSCFG_DL_TIMER_1ms_init)
    __arm_cp.8_1                             0x00003b64   Number         4  ti_msp_dl_config.o(.text.SYSCFG_DL_TIMER_1ms_init)
    __arm_cp.8_2                             0x00003b68   Number         4  ti_msp_dl_config.o(.text.SYSCFG_DL_TIMER_1ms_init)
    __arm_cp.8_3                             0x00003b6c   Number         4  ti_msp_dl_config.o(.text.SYSCFG_DL_TIMER_1ms_init)
    __arm_cp.8_5                             0x00003b70   Number         4  ti_msp_dl_config.o(.text.SYSCFG_DL_TIMER_1ms_init)
    [Anonymous Symbol]                       0x00003b74   Section        0  ti_msp_dl_config.o(.text.SYSCFG_DL_TIMER_5ms_init)
    __arm_cp.7_0                             0x00003ba4   Number         4  ti_msp_dl_config.o(.text.SYSCFG_DL_TIMER_5ms_init)
    __arm_cp.7_1                             0x00003ba8   Number         4  ti_msp_dl_config.o(.text.SYSCFG_DL_TIMER_5ms_init)
    __arm_cp.7_2                             0x00003bac   Number         4  ti_msp_dl_config.o(.text.SYSCFG_DL_TIMER_5ms_init)
    __arm_cp.7_3                             0x00003bb0   Number         4  ti_msp_dl_config.o(.text.SYSCFG_DL_TIMER_5ms_init)
    __arm_cp.7_4                             0x00003bb4   Number         4  ti_msp_dl_config.o(.text.SYSCFG_DL_TIMER_5ms_init)
    __arm_cp.7_5                             0x00003bb8   Number         4  ti_msp_dl_config.o(.text.SYSCFG_DL_TIMER_5ms_init)
    [Anonymous Symbol]                       0x00003bbc   Section        0  ti_msp_dl_config.o(.text.SYSCFG_DL_UART_0_init)
    __arm_cp.9_0                             0x00003c34   Number         4  ti_msp_dl_config.o(.text.SYSCFG_DL_UART_0_init)
    __arm_cp.9_1                             0x00003c38   Number         4  ti_msp_dl_config.o(.text.SYSCFG_DL_UART_0_init)
    __arm_cp.9_2                             0x00003c3c   Number         4  ti_msp_dl_config.o(.text.SYSCFG_DL_UART_0_init)
    __arm_cp.9_3                             0x00003c40   Number         4  ti_msp_dl_config.o(.text.SYSCFG_DL_UART_0_init)
    __arm_cp.9_4                             0x00003c44   Number         4  ti_msp_dl_config.o(.text.SYSCFG_DL_UART_0_init)
    __arm_cp.9_5                             0x00003c48   Number         4  ti_msp_dl_config.o(.text.SYSCFG_DL_UART_0_init)
    [Anonymous Symbol]                       0x00003c4c   Section        0  ti_msp_dl_config.o(.text.SYSCFG_DL_init)
    __arm_cp.0_0                             0x00003c98   Number         4  ti_msp_dl_config.o(.text.SYSCFG_DL_init)
    __arm_cp.0_1                             0x00003c9c   Number         4  ti_msp_dl_config.o(.text.SYSCFG_DL_init)
    __arm_cp.0_2                             0x00003ca0   Number         4  ti_msp_dl_config.o(.text.SYSCFG_DL_init)
    __arm_cp.0_3                             0x00003ca4   Number         4  ti_msp_dl_config.o(.text.SYSCFG_DL_init)
    __arm_cp.0_4                             0x00003ca8   Number         4  ti_msp_dl_config.o(.text.SYSCFG_DL_init)
    [Anonymous Symbol]                       0x00003cac   Section        0  ti_msp_dl_config.o(.text.SYSCFG_DL_initPower)
    __arm_cp.1_0                             0x00003d04   Number         4  ti_msp_dl_config.o(.text.SYSCFG_DL_initPower)
    __arm_cp.1_1                             0x00003d08   Number         4  ti_msp_dl_config.o(.text.SYSCFG_DL_initPower)
    __arm_cp.1_2                             0x00003d0c   Number         4  ti_msp_dl_config.o(.text.SYSCFG_DL_initPower)
    __arm_cp.1_3                             0x00003d10   Number         4  ti_msp_dl_config.o(.text.SYSCFG_DL_initPower)
    __arm_cp.1_4                             0x00003d14   Number         4  ti_msp_dl_config.o(.text.SYSCFG_DL_initPower)
    __arm_cp.1_5                             0x00003d18   Number         4  ti_msp_dl_config.o(.text.SYSCFG_DL_initPower)
    __arm_cp.1_6                             0x00003d1c   Number         4  ti_msp_dl_config.o(.text.SYSCFG_DL_initPower)
    __arm_cp.1_7                             0x00003d20   Number         4  ti_msp_dl_config.o(.text.SYSCFG_DL_initPower)
    __arm_cp.1_8                             0x00003d24   Number         4  ti_msp_dl_config.o(.text.SYSCFG_DL_initPower)
    __arm_cp.1_9                             0x00003d28   Number         4  ti_msp_dl_config.o(.text.SYSCFG_DL_initPower)
    __arm_cp.1_10                            0x00003d2c   Number         4  ti_msp_dl_config.o(.text.SYSCFG_DL_initPower)
    __arm_cp.1_11                            0x00003d30   Number         4  ti_msp_dl_config.o(.text.SYSCFG_DL_initPower)
    [Anonymous Symbol]                       0x00003d34   Section        0  pwm.o(.text.SetLeftMotor)
    [Anonymous Symbol]                       0x00003d58   Section        0  pwm.o(.text.SetRightMotor)
    __arm_cp.2_0                             0x00003d7c   Number         4  pwm.o(.text.SetRightMotor)
    __arm_cp.2_1                             0x00003d80   Number         4  pwm.o(.text.SetRightMotor)
    [Anonymous Symbol]                       0x00003d84   Section        0  pwm.o(.text.SetServo)
    __arm_cp.3_0                             0x00003da8   Number         4  pwm.o(.text.SetServo)
    __arm_cp.3_1                             0x00003dac   Number         4  pwm.o(.text.SetServo)
    [Anonymous Symbol]                       0x00003db0   Section        0  pid.o(.text.Set_PID)
    [Anonymous Symbol]                       0x00003db4   Section        0  pid.o(.text.Set_PID_Limit)
    [Anonymous Symbol]                       0x00003dbc   Section        0  main.o(.text.TIMG0_IRQHandler)
    __arm_cp.6_0                             0x00003dfc   Number         4  main.o(.text.TIMG0_IRQHandler)
    __arm_cp.6_1                             0x00003e00   Number         4  main.o(.text.TIMG0_IRQHandler)
    [Anonymous Symbol]                       0x00003e04   Section        0  main.o(.text.TIMG6_IRQHandler)
    __arm_cp.7_1                             0x00003f60   Number         4  main.o(.text.TIMG6_IRQHandler)
    [Anonymous Symbol]                       0x00003f64   Section        0  main.o(.text.UART1_IRQHandler)
    __arm_cp.4_0                             0x00003fc0   Number         4  main.o(.text.UART1_IRQHandler)
    __arm_cp.4_1                             0x00003fc4   Number         4  main.o(.text.UART1_IRQHandler)
    __arm_cp.4_2                             0x00003fc8   Number         4  main.o(.text.UART1_IRQHandler)
    __arm_cp.4_3                             0x00003fcc   Number         4  main.o(.text.UART1_IRQHandler)
    [Anonymous Symbol]                       0x00003fd0   Section        0  uart.o(.text.UART_init)
    __arm_cp.0_0                             0x00003fe0   Number         4  uart.o(.text.UART_init)
    [Anonymous Symbol]                       0x00003fe4   Section        0  main.o(.text.get_speed)
    __arm_cp.19_0                            0x00004064   Number         4  main.o(.text.get_speed)
    __arm_cp.19_1                            0x00004068   Number         4  main.o(.text.get_speed)
    __arm_cp.19_2                            0x0000406c   Number         4  main.o(.text.get_speed)
    __arm_cp.19_3                            0x00004070   Number         4  main.o(.text.get_speed)
    __arm_cp.19_4                            0x00004074   Number         4  main.o(.text.get_speed)
    __arm_cp.19_5                            0x00004078   Number         4  main.o(.text.get_speed)
    __arm_cp.19_6                            0x0000407c   Number         4  main.o(.text.get_speed)
    __arm_cp.19_7                            0x00004080   Number         4  main.o(.text.get_speed)
    __arm_cp.19_9                            0x00004084   Number         4  main.o(.text.get_speed)
    [Anonymous Symbol]                       0x00004088   Section        0  main.o(.text.main)
    __arm_cp.0_0                             0x00004218   Number         4  main.o(.text.main)
    __arm_cp.0_1                             0x0000421c   Number         4  main.o(.text.main)
    __arm_cp.0_2                             0x00004220   Number         4  main.o(.text.main)
    __arm_cp.0_3                             0x00004224   Number         4  main.o(.text.main)
    __arm_cp.0_4                             0x00004228   Number         4  main.o(.text.main)
    __arm_cp.0_5                             0x0000422c   Number         4  main.o(.text.main)
    __arm_cp.0_6                             0x00004230   Number         4  main.o(.text.main)
    __arm_cp.0_7                             0x00004234   Number         4  main.o(.text.main)
    __arm_cp.0_8                             0x00004238   Number         4  main.o(.text.main)
    __arm_cp.0_9                             0x0000423c   Number         4  main.o(.text.main)
    __arm_cp.0_10                            0x00004240   Number         4  main.o(.text.main)
    __arm_cp.0_11                            0x00004244   Number         4  main.o(.text.main)
    __arm_cp.0_12                            0x00004248   Number         4  main.o(.text.main)
    __arm_cp.0_13                            0x0000424c   Number         4  main.o(.text.main)
    __arm_cp.0_14                            0x00004250   Number         4  main.o(.text.main)
    __arm_cp.0_15                            0x00004254   Number         4  main.o(.text.main)
    __arm_cp.0_17                            0x00004260   Number         4  main.o(.text.main)
    __arm_cp.0_19                            0x00004264   Number         4  main.o(.text.main)
    __arm_cp.0_21                            0x00004268   Number         4  main.o(.text.main)
    [Anonymous Symbol]                       0x0000426c   Section        0  main.o(.text.sdk_run)
    __arm_cp.18_0                            0x000042fc   Number         4  main.o(.text.sdk_run)
    __arm_cp.18_1                            0x00004300   Number         4  main.o(.text.sdk_run)
    __arm_cp.18_5                            0x00004304   Number         4  main.o(.text.sdk_run)
    __arm_cp.18_8                            0x00004308   Number         4  main.o(.text.sdk_run)
    __arm_cp.18_9                            0x0000430c   Number         4  main.o(.text.sdk_run)
    [Anonymous Symbol]                       0x00004310   Section        0  main.o(.text.set_speed)
    __arm_cp.21_1                            0x00004380   Number         4  main.o(.text.set_speed)
    __arm_cp.21_4                            0x00004384   Number         4  main.o(.text.set_speed)
    [Anonymous Symbol]                       0x00004388   Section        0  main.o(.text.subtask2)
    __arm_cp.15_0                            0x000044f4   Number         4  main.o(.text.subtask2)
    __arm_cp.15_1                            0x000044f8   Number         4  main.o(.text.subtask2)
    __arm_cp.15_2                            0x000044fc   Number         4  main.o(.text.subtask2)
    __arm_cp.15_3                            0x00004500   Number         4  main.o(.text.subtask2)
    __arm_cp.15_4                            0x00004504   Number         4  main.o(.text.subtask2)
    __arm_cp.15_5                            0x00004508   Number         4  main.o(.text.subtask2)
    __arm_cp.15_6                            0x0000450c   Number         4  main.o(.text.subtask2)
    __arm_cp.15_7                            0x00004510   Number         4  main.o(.text.subtask2)
    __arm_cp.15_8                            0x00004514   Number         4  main.o(.text.subtask2)
    [Anonymous Symbol]                       0x00004518   Section        0  main.o(.text.subtask3)
    __arm_cp.16_0                            0x00004660   Number         4  main.o(.text.subtask3)
    __arm_cp.16_1                            0x00004664   Number         4  main.o(.text.subtask3)
    __arm_cp.16_2                            0x00004668   Number         4  main.o(.text.subtask3)
    __arm_cp.16_3                            0x0000466c   Number         4  main.o(.text.subtask3)
    __arm_cp.16_4                            0x00004670   Number         4  main.o(.text.subtask3)
    __arm_cp.16_5                            0x00004674   Number         4  main.o(.text.subtask3)
    __arm_cp.16_6                            0x00004678   Number         4  main.o(.text.subtask3)
    __arm_cp.16_7                            0x0000467c   Number         4  main.o(.text.subtask3)
    __arm_cp.16_8                            0x00004680   Number         4  main.o(.text.subtask3)
    __arm_cp.16_9                            0x00004684   Number         4  main.o(.text.subtask3)
    __arm_cp.16_10                           0x00004688   Number         4  main.o(.text.subtask3)
    __arm_cp.16_11                           0x0000468c   Number         4  main.o(.text.subtask3)
    __arm_cp.16_12                           0x00004690   Number         4  main.o(.text.subtask3)
    __arm_cp.16_13                           0x00004694   Number         4  main.o(.text.subtask3)
    __arm_cp.16_14                           0x00004698   Number         4  main.o(.text.subtask3)
    .text_divfast                            0x0000469c   Section      502  aeabi_sdivfast.o(.text_divfast)
    Long Thumb to Thumb Veneer to DL_FlashCTL_executeCommandFromRAM 0x00004895   Thumb Code    12  anon$$obj.o(Veneer$$Code)
    i._fgr                                   0x000048a0   Section        0  fcmp.o(i._fgr)
    i._fls                                   0x000048b6   Section        0  fcmp.o(i._fls)
    i.floor                                  0x000048cc   Section        0  floor.o(i.floor)
    x$fpl$drleqf                             0x00004994   Section      104  drlef.o(x$fpl$drleqf)
    x$fpl$fadd                               0x000049fc   Section      140  faddsub.o(x$fpl$fadd)
    _fadd1                                   0x00004a09   Thumb Code     0  faddsub.o(x$fpl$fadd)
    x$fpl$fgeqf                              0x00004a88   Section       84  fgef.o(x$fpl$fgeqf)
    x$fpl$fleqf                              0x00004adc   Section       84  flef.o(x$fpl$fleqf)
    x$fpl$fmul                               0x00004b30   Section      176  fmul.o(x$fpl$fmul)
    x$fpl$fsub                               0x00004be0   Section      208  faddsub.o(x$fpl$fsub)
    _fsub1                                   0x00004bed   Thumb Code     0  faddsub.o(x$fpl$fsub)
    ddiv_reciptbl                            0x00004cb0   Data         128  ddiv.o(.constdata)
    .constdata                               0x00004cb0   Section      128  ddiv.o(.constdata)
    x$fpl$usenofp                            0x00004cb0   Section        0  usenofp.o(x$fpl$usenofp)
    fdiv_tab                                 0x00004d30   Data          64  fdiv.o(.constdata)
    .constdata                               0x00004d30   Section       64  fdiv.o(.constdata)
    gMOTORClockConfig                        0x000056d0   Data           3  ti_msp_dl_config.o(.rodata.gMOTORClockConfig)
    [Anonymous Symbol]                       0x000056d0   Section        0  ti_msp_dl_config.o(.rodata.gMOTORClockConfig)
    gMOTORConfig                             0x000056d4   Data           8  ti_msp_dl_config.o(.rodata.gMOTORConfig)
    [Anonymous Symbol]                       0x000056d4   Section        0  ti_msp_dl_config.o(.rodata.gMOTORConfig)
    gMPU_clockConfig                         0x000056dc   Data           2  ti_msp_dl_config.o(.rodata.gMPU_clockConfig)
    [Anonymous Symbol]                       0x000056dc   Section        0  ti_msp_dl_config.o(.rodata.gMPU_clockConfig)
    gMPU_config                              0x000056de   Data          10  ti_msp_dl_config.o(.rodata.gMPU_config)
    [Anonymous Symbol]                       0x000056de   Section        0  ti_msp_dl_config.o(.rodata.gMPU_config)
    gPWM_0ClockConfig                        0x000056e8   Data           3  ti_msp_dl_config.o(.rodata.gPWM_0ClockConfig)
    [Anonymous Symbol]                       0x000056e8   Section        0  ti_msp_dl_config.o(.rodata.gPWM_0ClockConfig)
    gPWM_0Config                             0x000056ec   Data           8  ti_msp_dl_config.o(.rodata.gPWM_0Config)
    [Anonymous Symbol]                       0x000056ec   Section        0  ti_msp_dl_config.o(.rodata.gPWM_0Config)
    gSYSPLLConfig                            0x000056f4   Data          40  ti_msp_dl_config.o(.rodata.gSYSPLLConfig)
    [Anonymous Symbol]                       0x000056f4   Section        0  ti_msp_dl_config.o(.rodata.gSYSPLLConfig)
    gServoClockConfig                        0x0000571c   Data           3  ti_msp_dl_config.o(.rodata.gServoClockConfig)
    [Anonymous Symbol]                       0x0000571c   Section        0  ti_msp_dl_config.o(.rodata.gServoClockConfig)
    gServoConfig                             0x00005720   Data           8  ti_msp_dl_config.o(.rodata.gServoConfig)
    [Anonymous Symbol]                       0x00005720   Section        0  ti_msp_dl_config.o(.rodata.gServoConfig)
    gTIMER_1msClockConfig                    0x00005728   Data           3  ti_msp_dl_config.o(.rodata.gTIMER_1msClockConfig)
    [Anonymous Symbol]                       0x00005728   Section        0  ti_msp_dl_config.o(.rodata.gTIMER_1msClockConfig)
    gTIMER_1msTimerConfig                    0x0000572c   Data          20  ti_msp_dl_config.o(.rodata.gTIMER_1msTimerConfig)
    [Anonymous Symbol]                       0x0000572c   Section        0  ti_msp_dl_config.o(.rodata.gTIMER_1msTimerConfig)
    gTIMER_5msClockConfig                    0x00005740   Data           3  ti_msp_dl_config.o(.rodata.gTIMER_5msClockConfig)
    [Anonymous Symbol]                       0x00005740   Section        0  ti_msp_dl_config.o(.rodata.gTIMER_5msClockConfig)
    gTIMER_5msTimerConfig                    0x00005744   Data          20  ti_msp_dl_config.o(.rodata.gTIMER_5msTimerConfig)
    [Anonymous Symbol]                       0x00005744   Section        0  ti_msp_dl_config.o(.rodata.gTIMER_5msTimerConfig)
    gUART_0ClockConfig                       0x00005758   Data           2  ti_msp_dl_config.o(.rodata.gUART_0ClockConfig)
    [Anonymous Symbol]                       0x00005758   Section        0  ti_msp_dl_config.o(.rodata.gUART_0ClockConfig)
    gUART_0Config                            0x0000575a   Data          10  ti_msp_dl_config.o(.rodata.gUART_0Config)
    [Anonymous Symbol]                       0x0000575a   Section        0  ti_msp_dl_config.o(.rodata.gUART_0Config)
    DL_FlashCTL_executeCommandFromRAM        0x20200001   Thumb Code    60  dl_flashctl.o(.ramfunc)
    [Anonymous Symbol]                       0x20200000   Section        0  dl_flashctl.o(.ramfunc)
    __arm_cp.2_0                             0x2020003c   Number         4  dl_flashctl.o(.ramfunc)
    .bss                                     0x20200050   Section       96  libspace.o(.bss)
    subtask1.stage                           0x20200514   Data           4  main.o(.bss.subtask1.stage)
    [Anonymous Symbol]                       0x20200514   Section        0  main.o(.bss.subtask1.stage)
    subtask2.stage                           0x20200518   Data           4  main.o(.bss.subtask2.stage)
    [Anonymous Symbol]                       0x20200518   Section        0  main.o(.bss.subtask2.stage)
    subtask3.stage                           0x2020051c   Data           4  main.o(.bss.subtask3.stage)
    [Anonymous Symbol]                       0x2020051c   Section        0  main.o(.bss.subtask3.stage)
    xAoffset                                 0x20200528   Data           8  mpu6500_spi.o(.bss.xAoffset)
    [Anonymous Symbol]                       0x20200528   Section        0  mpu6500_spi.o(.bss.xAoffset)
    xGoffset                                 0x20200530   Data           8  mpu6500_spi.o(.bss.xGoffset)
    [Anonymous Symbol]                       0x20200530   Section        0  mpu6500_spi.o(.bss.xGoffset)
    yAoffset                                 0x20200538   Data           8  mpu6500_spi.o(.bss.yAoffset)
    [Anonymous Symbol]                       0x20200538   Section        0  mpu6500_spi.o(.bss.yAoffset)
    yGoffset                                 0x20200540   Data           8  mpu6500_spi.o(.bss.yGoffset)
    [Anonymous Symbol]                       0x20200540   Section        0  mpu6500_spi.o(.bss.yGoffset)
    zAoffset                                 0x20200548   Data           8  mpu6500_spi.o(.bss.zAoffset)
    [Anonymous Symbol]                       0x20200548   Section        0  mpu6500_spi.o(.bss.zAoffset)
    zGoffset                                 0x20200550   Data           8  mpu6500_spi.o(.bss.zGoffset)
    [Anonymous Symbol]                       0x20200550   Section        0  mpu6500_spi.o(.bss.zGoffset)
    Heap_Mem                                 0x20200558   Data           0  startup_mspm0g3507_uvision.o(HEAP)
    Stack_Mem                                0x20200558   Data       12800  startup_mspm0g3507_uvision.o(STACK)
    HEAP                                     0x20200558   Section        0  startup_mspm0g3507_uvision.o(HEAP)
    STACK                                    0x20200558   Section    12800  startup_mspm0g3507_uvision.o(STACK)
    __initial_sp                             0x20203758   Data           0  startup_mspm0g3507_uvision.o(STACK)

    Global Symbols

    Symbol Name                              Value     Ov Type        Size  Object(Section)

    BuildAttributes$$THM_ISAv3M$S$PE$A:L22$X:L11$S22$IEEE1$IW$~IW$USESV6$~STKCKD$USESV7$~SHL$OTIME$ROPI$IEEEJ$EBA8$UX$STANDARDLIB$REQ8$PRES8$EABIv2 0x00000000   Number         0  anon$$obj.o ABSOLUTE
    __Vectors                                0x00000000   Data           4  startup_mspm0g3507_uvision.o(RESET)
    __ARM_exceptions_init                     - Undefined Weak Reference
    __alloca_initialize                       - Undefined Weak Reference
    __arm_preinit_                            - Undefined Weak Reference
    __arm_relocate_pie_                       - Undefined Weak Reference
    __cpp_initialize__aeabi_                  - Undefined Weak Reference
    __cxa_finalize                            - Undefined Weak Reference
    __rt_locale                               - Undefined Weak Reference
    __sigvec_lookup                           - Undefined Weak Reference
    _atexit_init                              - Undefined Weak Reference
    _call_atexit_fns                          - Undefined Weak Reference
    _clock_init                               - Undefined Weak Reference
    _fp_trap_init                             - Undefined Weak Reference
    _fp_trap_shutdown                         - Undefined Weak Reference
    _get_lc_collate                           - Undefined Weak Reference
    _get_lc_ctype                             - Undefined Weak Reference
    _get_lc_monetary                          - Undefined Weak Reference
    _get_lc_numeric                           - Undefined Weak Reference
    _get_lc_time                              - Undefined Weak Reference
    _getenv_init                              - Undefined Weak Reference
    _handle_redirection                       - Undefined Weak Reference
    _init_alloc                               - Undefined Weak Reference
    _init_user_alloc                          - Undefined Weak Reference
    _initio                                   - Undefined Weak Reference
    _rand_init                                - Undefined Weak Reference
    _signal_finish                            - Undefined Weak Reference
    _signal_init                              - Undefined Weak Reference
    _terminate_alloc                          - Undefined Weak Reference
    _terminate_user_alloc                     - Undefined Weak Reference
    _terminateio                              - Undefined Weak Reference
    __Vectors_End                            0x000000c0   Data           0  startup_mspm0g3507_uvision.o(RESET)
    __Vectors_Size                           0x000000c0   Number         0  startup_mspm0g3507_uvision.o ABSOLUTE
    __main                                   0x000000c1   Thumb Code     8  __main.o(!!!main)
    __scatterload                            0x000000c9   Thumb Code     0  __scatter.o(!!!scatter)
    __scatterload_rt2                        0x000000c9   Thumb Code    74  __scatter.o(!!!scatter)
    __scatterload_rt2_thumb_only             0x000000c9   Thumb Code     0  __scatter.o(!!!scatter)
    __scatterload_loop                       0x000000d3   Thumb Code     0  __scatter.o(!!!scatter)
    __scatterload_copy                       0x00000121   Thumb Code    26  __scatter_copy.o(!!handler_copy)
    __scatterload_null                       0x00000141   Thumb Code     2  __scatter.o(!!handler_null)
    __scatterload_zeroinit                   0x00000149   Thumb Code    28  __scatter_zi.o(!!handler_zi)
    __rt_lib_init                            0x00000165   Thumb Code     0  libinit.o(.ARM.Collect$$libinit$$00000000)
    __rt_lib_init_alloca_1                   0x00000167   Thumb Code     0  libinit2.o(.ARM.Collect$$libinit$$00000030)
    __rt_lib_init_argv_1                     0x00000167   Thumb Code     0  libinit2.o(.ARM.Collect$$libinit$$0000002E)
    __rt_lib_init_atexit_1                   0x00000167   Thumb Code     0  libinit2.o(.ARM.Collect$$libinit$$0000001D)
    __rt_lib_init_clock_1                    0x00000167   Thumb Code     0  libinit2.o(.ARM.Collect$$libinit$$00000023)
    __rt_lib_init_cpp_1                      0x00000167   Thumb Code     0  libinit2.o(.ARM.Collect$$libinit$$00000034)
    __rt_lib_init_exceptions_1               0x00000167   Thumb Code     0  libinit2.o(.ARM.Collect$$libinit$$00000032)
    __rt_lib_init_fp_1                       0x00000167   Thumb Code     0  libinit2.o(.ARM.Collect$$libinit$$00000002)
    __rt_lib_init_fp_trap_1                  0x00000167   Thumb Code     0  libinit2.o(.ARM.Collect$$libinit$$00000021)
    __rt_lib_init_getenv_1                   0x00000167   Thumb Code     0  libinit2.o(.ARM.Collect$$libinit$$00000025)
    __rt_lib_init_heap_1                     0x00000167   Thumb Code     0  libinit2.o(.ARM.Collect$$libinit$$0000000C)
    __rt_lib_init_lc_collate_1               0x00000167   Thumb Code     0  libinit2.o(.ARM.Collect$$libinit$$00000013)
    __rt_lib_init_lc_ctype_1                 0x00000167   Thumb Code     0  libinit2.o(.ARM.Collect$$libinit$$00000015)
    __rt_lib_init_lc_monetary_1              0x00000167   Thumb Code     0  libinit2.o(.ARM.Collect$$libinit$$00000017)
    __rt_lib_init_lc_numeric_1               0x00000167   Thumb Code     0  libinit2.o(.ARM.Collect$$libinit$$00000019)
    __rt_lib_init_lc_time_1                  0x00000167   Thumb Code     0  libinit2.o(.ARM.Collect$$libinit$$0000001B)
    __rt_lib_init_preinit_1                  0x00000167   Thumb Code     0  libinit2.o(.ARM.Collect$$libinit$$00000006)
    __rt_lib_init_rand_1                     0x00000167   Thumb Code     0  libinit2.o(.ARM.Collect$$libinit$$00000010)
    __rt_lib_init_relocate_pie_1             0x00000167   Thumb Code     0  libinit2.o(.ARM.Collect$$libinit$$00000004)
    __rt_lib_init_return                     0x00000167   Thumb Code     0  libinit2.o(.ARM.Collect$$libinit$$00000035)
    __rt_lib_init_signal_1                   0x00000167   Thumb Code     0  libinit2.o(.ARM.Collect$$libinit$$0000001F)
    __rt_lib_init_stdio_1                    0x00000167   Thumb Code     0  libinit2.o(.ARM.Collect$$libinit$$00000027)
    __rt_lib_init_user_alloc_1               0x00000167   Thumb Code     0  libinit2.o(.ARM.Collect$$libinit$$0000000E)
    __rt_lib_shutdown                        0x00000169   Thumb Code     0  libshutdown.o(.ARM.Collect$$libshutdown$$00000000)
    __rt_lib_shutdown_cpp_1                  0x0000016b   Thumb Code     0  libshutdown2.o(.ARM.Collect$$libshutdown$$00000002)
    __rt_lib_shutdown_fp_trap_1              0x0000016b   Thumb Code     0  libshutdown2.o(.ARM.Collect$$libshutdown$$00000007)
    __rt_lib_shutdown_heap_1                 0x0000016b   Thumb Code     0  libshutdown2.o(.ARM.Collect$$libshutdown$$0000000F)
    __rt_lib_shutdown_return                 0x0000016b   Thumb Code     0  libshutdown2.o(.ARM.Collect$$libshutdown$$00000010)
    __rt_lib_shutdown_signal_1               0x0000016b   Thumb Code     0  libshutdown2.o(.ARM.Collect$$libshutdown$$0000000A)
    __rt_lib_shutdown_stdio_1                0x0000016b   Thumb Code     0  libshutdown2.o(.ARM.Collect$$libshutdown$$00000004)
    __rt_lib_shutdown_user_alloc_1           0x0000016b   Thumb Code     0  libshutdown2.o(.ARM.Collect$$libshutdown$$0000000C)
    __rt_entry                               0x0000016d   Thumb Code     0  __rtentry.o(.ARM.Collect$$rtentry$$00000000)
    __rt_entry_presh_1                       0x0000016d   Thumb Code     0  __rtentry2.o(.ARM.Collect$$rtentry$$00000002)
    __rt_entry_sh                            0x0000016d   Thumb Code     0  __rtentry4.o(.ARM.Collect$$rtentry$$00000004)
    __rt_entry_li                            0x00000173   Thumb Code     0  __rtentry2.o(.ARM.Collect$$rtentry$$0000000A)
    __rt_entry_postsh_1                      0x00000173   Thumb Code     0  __rtentry2.o(.ARM.Collect$$rtentry$$00000009)
    __rt_entry_main                          0x00000177   Thumb Code     0  __rtentry2.o(.ARM.Collect$$rtentry$$0000000D)
    __rt_entry_postli_1                      0x00000177   Thumb Code     0  __rtentry2.o(.ARM.Collect$$rtentry$$0000000C)
    __rt_exit                                0x0000017f   Thumb Code     0  rtexit.o(.ARM.Collect$$rtexit$$00000000)
    __rt_exit_ls                             0x00000181   Thumb Code     0  rtexit2.o(.ARM.Collect$$rtexit$$00000003)
    __rt_exit_prels_1                        0x00000181   Thumb Code     0  rtexit2.o(.ARM.Collect$$rtexit$$00000002)
    __rt_exit_exit                           0x00000185   Thumb Code     0  rtexit2.o(.ARM.Collect$$rtexit$$00000004)
    Reset_Handler                            0x0000018d   Thumb Code     4  startup_mspm0g3507_uvision.o(.text)
    NMI_Handler                              0x00000191   Thumb Code     2  startup_mspm0g3507_uvision.o(.text)
    HardFault_Handler                        0x00000193   Thumb Code     2  startup_mspm0g3507_uvision.o(.text)
    SVC_Handler                              0x00000195   Thumb Code     2  startup_mspm0g3507_uvision.o(.text)
    PendSV_Handler                           0x00000197   Thumb Code     2  startup_mspm0g3507_uvision.o(.text)
    SysTick_Handler                          0x00000199   Thumb Code     2  startup_mspm0g3507_uvision.o(.text)
    ADC0_IRQHandler                          0x0000019b   Thumb Code     0  startup_mspm0g3507_uvision.o(.text)
    ADC1_IRQHandler                          0x0000019b   Thumb Code     0  startup_mspm0g3507_uvision.o(.text)
    AES_IRQHandler                           0x0000019b   Thumb Code     0  startup_mspm0g3507_uvision.o(.text)
    CANFD0_IRQHandler                        0x0000019b   Thumb Code     0  startup_mspm0g3507_uvision.o(.text)
    DAC0_IRQHandler                          0x0000019b   Thumb Code     0  startup_mspm0g3507_uvision.o(.text)
    DMA_IRQHandler                           0x0000019b   Thumb Code     0  startup_mspm0g3507_uvision.o(.text)
    Default_Handler                          0x0000019b   Thumb Code     2  startup_mspm0g3507_uvision.o(.text)
    GROUP0_IRQHandler                        0x0000019b   Thumb Code     0  startup_mspm0g3507_uvision.o(.text)
    I2C0_IRQHandler                          0x0000019b   Thumb Code     0  startup_mspm0g3507_uvision.o(.text)
    I2C1_IRQHandler                          0x0000019b   Thumb Code     0  startup_mspm0g3507_uvision.o(.text)
    RTC_IRQHandler                           0x0000019b   Thumb Code     0  startup_mspm0g3507_uvision.o(.text)
    SPI0_IRQHandler                          0x0000019b   Thumb Code     0  startup_mspm0g3507_uvision.o(.text)
    SPI1_IRQHandler                          0x0000019b   Thumb Code     0  startup_mspm0g3507_uvision.o(.text)
    TIMA0_IRQHandler                         0x0000019b   Thumb Code     0  startup_mspm0g3507_uvision.o(.text)
    TIMA1_IRQHandler                         0x0000019b   Thumb Code     0  startup_mspm0g3507_uvision.o(.text)
    TIMG12_IRQHandler                        0x0000019b   Thumb Code     0  startup_mspm0g3507_uvision.o(.text)
    TIMG7_IRQHandler                         0x0000019b   Thumb Code     0  startup_mspm0g3507_uvision.o(.text)
    TIMG8_IRQHandler                         0x0000019b   Thumb Code     0  startup_mspm0g3507_uvision.o(.text)
    UART0_IRQHandler                         0x0000019b   Thumb Code     0  startup_mspm0g3507_uvision.o(.text)
    UART2_IRQHandler                         0x0000019b   Thumb Code     0  startup_mspm0g3507_uvision.o(.text)
    UART3_IRQHandler                         0x0000019b   Thumb Code     0  startup_mspm0g3507_uvision.o(.text)
    __user_initial_stackheap                 0x0000019d   Thumb Code    10  startup_mspm0g3507_uvision.o(.text)
    __aeabi_uidivmod                         0x000001b9   Thumb Code    28  aeabi_sdivfast.o(.text)
    __aeabi_idivmod                          0x000001d5   Thumb Code   472  aeabi_sdivfast.o(.text)
    __use_two_region_memory                  0x000003b1   Thumb Code     2  heapauxi.o(.text)
    __rt_heap_escrow$2region                 0x000003b3   Thumb Code     2  heapauxi.o(.text)
    __rt_heap_expand$2region                 0x000003b5   Thumb Code     2  heapauxi.o(.text)
    __aeabi_d2f                              0x000003b9   Thumb Code     0  d2f.o(.text)
    _d2f                                     0x000003b9   Thumb Code   120  d2f.o(.text)
    __aeabi_dadd                             0x0000072d   Thumb Code     0  daddsub.o(.text)
    _dadd                                    0x0000072d   Thumb Code    26  daddsub.o(.text)
    __aeabi_dsub                             0x00000747   Thumb Code     0  daddsub.o(.text)
    _dsub                                    0x00000747   Thumb Code    22  daddsub.o(.text)
    __aeabi_drsub                            0x0000075d   Thumb Code     0  daddsub.o(.text)
    _drsb                                    0x0000075d   Thumb Code    28  daddsub.o(.text)
    __aeabi_ddiv                             0x0000078d   Thumb Code     0  ddiv.o(.text)
    _ddiv                                    0x0000078d   Thumb Code  1072  ddiv.o(.text)
    _drdiv                                   0x00000bbd   Thumb Code    20  ddiv.o(.text)
    __aeabi_d2iz                             0x00000bd5   Thumb Code     0  dfixi.o(.text)
    _dfix                                    0x00000bd5   Thumb Code    98  dfixi.o(.text)
    __aeabi_i2d_normalise                    0x00000c41   Thumb Code    66  dflti.o(.text)
    __aeabi_i2d                              0x00000c83   Thumb Code    16  dflti.o(.text)
    _dflt                                    0x00000c83   Thumb Code     0  dflti.o(.text)
    __aeabi_ui2d                             0x00000c93   Thumb Code     6  dflti.o(.text)
    _dfltu                                   0x00000c93   Thumb Code     0  dflti.o(.text)
    __aeabi_dmul                             0x00000c99   Thumb Code     0  dmul.o(.text)
    _dmul                                    0x00000c99   Thumb Code   558  dmul.o(.text)
    __aeabi_f2d                              0x00000ee1   Thumb Code     0  f2d.o(.text)
    _f2d                                     0x00000ee1   Thumb Code    80  f2d.o(.text)
    __aeabi_fdiv                             0x00000f35   Thumb Code     0  fdiv.o(.text)
    _fdiv                                    0x00000f35   Thumb Code   334  fdiv.o(.text)
    _frdiv                                   0x00001083   Thumb Code     8  fdiv.o(.text)
    __aeabi_f2iz                             0x00001095   Thumb Code     0  ffixi.o(.text)
    _ffix                                    0x00001095   Thumb Code    76  ffixi.o(.text)
    __aeabi_f2uiz                            0x000010e1   Thumb Code     0  ffixui.o(.text)
    _ffixu                                   0x000010e1   Thumb Code    48  ffixui.o(.text)
    __aeabi_i2f_normalise                    0x00001111   Thumb Code    72  fflti.o(.text)
    __aeabi_i2f                              0x00001159   Thumb Code    16  fflti.o(.text)
    _fflt                                    0x00001159   Thumb Code     0  fflti.o(.text)
    __aeabi_ui2f                             0x00001169   Thumb Code     6  fflti.o(.text)
    _ffltu                                   0x00001169   Thumb Code     0  fflti.o(.text)
    __fpl_dcmp_InfNaN                        0x00001171   Thumb Code   154  dcmpin.o(.text)
    __fpl_fcmp_InfNaN                        0x00001211   Thumb Code    96  fcmpin.o(.text)
    __user_setup_stackheap                   0x00001275   Thumb Code    62  sys_stackheap_outer.o(.text)
    exit                                     0x000012b3   Thumb Code    16  exit.o(.text)
    __fpl_cmpreturn                          0x000012c3   Thumb Code    46  cmpret.o(.text)
    __fpl_dcheck_NaN2                        0x000012f1   Thumb Code    14  dnan2.o(.text)
    __fpl_fcheck_NaN2                        0x00001305   Thumb Code    10  fnan2.o(.text)
    __user_libspace                          0x00001315   Thumb Code     8  libspace.o(.text)
    __user_perproc_libspace                  0x00001315   Thumb Code     0  libspace.o(.text)
    __user_perthread_libspace                0x00001315   Thumb Code     0  libspace.o(.text)
    __fpl_return_NaN                         0x0000131d   Thumb Code    94  retnan.o(.text)
    _sys_exit                                0x0000137d   Thumb Code     8  sys_exit.o(.text)
    __I$use$semihosting                      0x00001389   Thumb Code     0  use_no_semi.o(.text)
    __use_no_semihosting_swi                 0x00001389   Thumb Code     2  use_no_semi.o(.text)
    DL_Common_delayCycles                    0x0000138b   Thumb Code    10  dl_common.o(.text.DL_Common_delayCycles)
    __semihosting_library_function           0x0000138b   Thumb Code     0  indicate_semi.o(.text)
    DL_FlashCTL_eraseMemoryFromRAM           0x00001395   Thumb Code    20  dl_flashctl.o(.text.DL_FlashCTL_eraseMemoryFromRAM)
    DL_FlashCTL_programMemoryBlockingFromRAM64WithECCGenerated 0x000013a9   Thumb Code    92  dl_flashctl.o(.text.DL_FlashCTL_programMemoryBlockingFromRAM64WithECCGenerated)
    DL_FlashCTL_programMemoryFromRAM64       0x00001405   Thumb Code    32  dl_flashctl.o(.text.DL_FlashCTL_programMemoryFromRAM64)
    DL_FlashCTL_programMemoryFromRAM64WithECCGenerated 0x00001425   Thumb Code    32  dl_flashctl.o(.text.DL_FlashCTL_programMemoryFromRAM64WithECCGenerated)
    DL_FlashCTL_unprotectSector              0x0000144d   Thumb Code   208  dl_flashctl.o(.text.DL_FlashCTL_unprotectSector)
    DL_SPI_init                              0x00001529   Thumb Code    60  dl_spi.o(.text.DL_SPI_init)
    DL_SPI_receiveDataBlocking8              0x0000156d   Thumb Code    36  dl_spi.o(.text.DL_SPI_receiveDataBlocking8)
    DL_SPI_setClockConfig                    0x00001591   Thumb Code    18  dl_spi.o(.text.DL_SPI_setClockConfig)
    DL_SPI_transmitDataBlocking8             0x000015a5   Thumb Code    32  dl_spi.o(.text.DL_SPI_transmitDataBlocking8)
    DL_SYSCTL_configSYSPLL                   0x000015c9   Thumb Code   220  dl_sysctl_mspm0g1x0x_g3x0x.o(.text.DL_SYSCTL_configSYSPLL)
    DL_SYSCTL_switchMCLKfromSYSOSCtoHSCLK    0x000016b5   Thumb Code    72  dl_sysctl_mspm0g1x0x_g3x0x.o(.text.DL_SYSCTL_switchMCLKfromSYSOSCtoHSCLK)
    DL_TimerA_initPWMMode                    0x00001705   Thumb Code   108  dl_timer.o(.text.DL_TimerA_initPWMMode)
    DL_Timer_initPWMMode                     0x00001775   Thumb Code   172  dl_timer.o(.text.DL_Timer_initPWMMode)
    DL_Timer_initTimerMode                   0x00001835   Thumb Code   220  dl_timer.o(.text.DL_Timer_initTimerMode)
    DL_Timer_setCaptCompUpdateMethod         0x0000191d   Thumb Code    24  dl_timer.o(.text.DL_Timer_setCaptCompUpdateMethod)
    DL_Timer_setCaptureCompareOutCtl         0x00001939   Thumb Code    20  dl_timer.o(.text.DL_Timer_setCaptureCompareOutCtl)
    DL_Timer_setCaptureCompareValue          0x00001951   Thumb Code    12  dl_timer.o(.text.DL_Timer_setCaptureCompareValue)
    DL_Timer_setClockConfig                  0x00001961   Thumb Code    24  dl_timer.o(.text.DL_Timer_setClockConfig)
    DL_UART_init                             0x0000197d   Thumb Code    64  dl_uart.o(.text.DL_UART_init)
    DL_UART_setClockConfig                   0x000019c5   Thumb Code    18  dl_uart.o(.text.DL_UART_setClockConfig)
    EEPROM_TypeA_init                        0x000019d9   Thumb Code   244  eeprom_emulation_type_a.o(.text.EEPROM_TypeA_init)
    EEPROM_TypeA_repairFormat                0x00001ad5   Thumb Code   280  eeprom_emulation_type_a.o(.text.EEPROM_TypeA_repairFormat)
    EEPROM_TypeA_searchCheck                 0x00001bf5   Thumb Code   552  eeprom_emulation_type_a.o(.text.EEPROM_TypeA_searchCheck)
    GROUP1_IRQHandler                        0x00001e39   Thumb Code    40  main.o(.text.GROUP1_IRQHandler)
    KeySCInput                               0x00001e6d   Thumb Code   512  keyboard.o(.text.KeySCInput)
    Keyboard_init                            0x00002071   Thumb Code    24  keyboard.o(.text.Keyboard_init)
    MPU6500_Calibration                      0x0000208d   Thumb Code   512  mpu6500_spi.o(.text.MPU6500_Calibration)
    MPU6500_Init                             0x000022c1   Thumb Code   396  mpu6500_spi.o(.text.MPU6500_Init)
    MPU6500_getData                          0x00002469   Thumb Code   600  mpu6500_spi.o(.text.MPU6500_getData)
    MPU6500_getRawData                       0x000026e1   Thumb Code   548  mpu6500_spi.o(.text.MPU6500_getRawData)
    MusicPlayer_init                         0x00002929   Thumb Code    36  musicplayer.o(.text.MusicPlayer_init)
    OLED_Clear                               0x0000295d   Thumb Code   404  oled.o(.text.OLED_Clear)
    OLED_DrawBMP                             0x00002af5   Thumb Code   120  oled.o(.text.OLED_DrawBMP)
    OLED_Init                                0x00002b6d   Thumb Code  1836  oled.o(.text.OLED_Init)
    OLED_ShowChar                            0x00003299   Thumb Code   240  oled.o(.text.OLED_ShowChar)
    OLED_ShowNum                             0x0000338d   Thumb Code   220  oled.o(.text.OLED_ShowNum)
    OLED_ShowSignedNum                       0x00003469   Thumb Code   256  oled.o(.text.OLED_ShowSignedNum)
    OLED_ShowString                          0x0000356d   Thumb Code    70  oled.o(.text.OLED_ShowString)
    OLED_WR_Byte                             0x000035b5   Thumb Code   148  oled.o(.text.OLED_WR_Byte)
    PID_Cal_Inc                              0x0000364d   Thumb Code   106  pid.o(.text.PID_Cal_Inc)
    PID_Cal_Pos                              0x000036b7   Thumb Code   160  pid.o(.text.PID_Cal_Pos)
    PWM_init                                 0x00003759   Thumb Code    72  pwm.o(.text.PWM_init)
    SYSCFG_DL_GPIO_init                      0x000037b1   Thumb Code   164  ti_msp_dl_config.o(.text.SYSCFG_DL_GPIO_init)
    SYSCFG_DL_MOTOR_init                     0x00003879   Thumb Code   136  ti_msp_dl_config.o(.text.SYSCFG_DL_MOTOR_init)
    SYSCFG_DL_MPU_init                       0x00003915   Thumb Code    56  ti_msp_dl_config.o(.text.SYSCFG_DL_MPU_init)
    SYSCFG_DL_PWM_0_init                     0x00003961   Thumb Code   136  ti_msp_dl_config.o(.text.SYSCFG_DL_PWM_0_init)
    SYSCFG_DL_SYSCTL_init                    0x000039fd   Thumb Code   108  ti_msp_dl_config.o(.text.SYSCFG_DL_SYSCTL_init)
    SYSCFG_DL_SYSTICK_init                   0x00003a79   Thumb Code    24  ti_msp_dl_config.o(.text.SYSCFG_DL_SYSTICK_init)
    SYSCFG_DL_Servo_init                     0x00003a99   Thumb Code   132  ti_msp_dl_config.o(.text.SYSCFG_DL_Servo_init)
    SYSCFG_DL_TIMER_1ms_init                 0x00003b2d   Thumb Code    52  ti_msp_dl_config.o(.text.SYSCFG_DL_TIMER_1ms_init)
    SYSCFG_DL_TIMER_5ms_init                 0x00003b75   Thumb Code    48  ti_msp_dl_config.o(.text.SYSCFG_DL_TIMER_5ms_init)
    SYSCFG_DL_UART_0_init                    0x00003bbd   Thumb Code   120  ti_msp_dl_config.o(.text.SYSCFG_DL_UART_0_init)
    SYSCFG_DL_init                           0x00003c4d   Thumb Code    76  ti_msp_dl_config.o(.text.SYSCFG_DL_init)
    SYSCFG_DL_initPower                      0x00003cad   Thumb Code    88  ti_msp_dl_config.o(.text.SYSCFG_DL_initPower)
    SetLeftMotor                             0x00003d35   Thumb Code    36  pwm.o(.text.SetLeftMotor)
    SetRightMotor                            0x00003d59   Thumb Code    36  pwm.o(.text.SetRightMotor)
    SetServo                                 0x00003d85   Thumb Code    36  pwm.o(.text.SetServo)
    Set_PID                                  0x00003db1   Thumb Code     4  pid.o(.text.Set_PID)
    Set_PID_Limit                            0x00003db5   Thumb Code     6  pid.o(.text.Set_PID_Limit)
    TIMG0_IRQHandler                         0x00003dbd   Thumb Code    64  main.o(.text.TIMG0_IRQHandler)
    TIMG6_IRQHandler                         0x00003e05   Thumb Code   348  main.o(.text.TIMG6_IRQHandler)
    UART1_IRQHandler                         0x00003f65   Thumb Code    92  main.o(.text.UART1_IRQHandler)
    UART_init                                0x00003fd1   Thumb Code    16  uart.o(.text.UART_init)
    get_speed                                0x00003fe5   Thumb Code   128  main.o(.text.get_speed)
    main                                     0x00004089   Thumb Code   400  main.o(.text.main)
    sdk_run                                  0x0000426d   Thumb Code   144  main.o(.text.sdk_run)
    set_speed                                0x00004311   Thumb Code   112  main.o(.text.set_speed)
    subtask2                                 0x00004389   Thumb Code   364  main.o(.text.subtask2)
    subtask3                                 0x00004519   Thumb Code   328  main.o(.text.subtask3)
    __aeabi_uidiv                            0x0000469d   Thumb Code    68  aeabi_sdivfast.o(.text_divfast)
    __aeabi_idiv                             0x000046e1   Thumb Code   434  aeabi_sdivfast.o(.text_divfast)
    __aeabi_fcmpgt                           0x000048a1   Thumb Code     0  fcmp.o(i._fgr)
    _fgr                                     0x000048a1   Thumb Code    22  fcmp.o(i._fgr)
    __aeabi_fcmplt                           0x000048b7   Thumb Code     0  fcmp.o(i._fls)
    _fls                                     0x000048b7   Thumb Code    22  fcmp.o(i._fls)
    floor                                    0x000048cd   Thumb Code   180  floor.o(i.floor)
    __aeabi_cdrcmple                         0x00004995   Thumb Code     0  drlef.o(x$fpl$drleqf)
    _drcmple                                 0x00004995   Thumb Code   100  drlef.o(x$fpl$drleqf)
    __aeabi_fadd                             0x000049fd   Thumb Code     0  faddsub.o(x$fpl$fadd)
    _fadd                                    0x000049fd   Thumb Code   134  faddsub.o(x$fpl$fadd)
    _fcmpge                                  0x00004a89   Thumb Code    78  fgef.o(x$fpl$fgeqf)
    __aeabi_cfcmple                          0x00004add   Thumb Code     0  flef.o(x$fpl$fleqf)
    _fcmple                                  0x00004add   Thumb Code    78  flef.o(x$fpl$fleqf)
    __aeabi_fmul                             0x00004b31   Thumb Code     0  fmul.o(x$fpl$fmul)
    _fmul                                    0x00004b31   Thumb Code   172  fmul.o(x$fpl$fmul)
    __aeabi_fsub                             0x00004be1   Thumb Code     0  faddsub.o(x$fpl$fsub)
    _fsub                                    0x00004be1   Thumb Code   204  faddsub.o(x$fpl$fsub)
    __I$use$fp                               0x00004cb0   Number         0  usenofp.o(x$fpl$usenofp)
    F8X16                                    0x00004d70   Data        1520  oled.o(.rodata.F8X16)
    Genshin                                  0x00005360   Data         880  main.o(.rodata.Genshin)
    Region$$Table$$Base                      0x00005768   Number         0  anon$$obj.o(Region$$Table)
    Region$$Table$$Limit                     0x00005798   Number         0  anon$$obj.o(Region$$Table)
    gActiveRecordAddress                     0x20200040   Data           4  eeprom_emulation_type_a.o(.data.gActiveRecordAddress)
    gActiveSectorNum                         0x20200044   Data           2  eeprom_emulation_type_a.o(.data.gActiveSectorNum)
    gNextRecordAddress                       0x20200048   Data           4  eeprom_emulation_type_a.o(.data.gNextRecordAddress)
    __libspace_start                         0x20200050   Data          96  libspace.o(.bss)
    EEPROMEmulationBuffer                    0x202000b0   Data         248  main.o(.bss.EEPROMEmulationBuffer)
    __temporary_stack_top$libspace           0x202000b0   Data           0  libspace.o(.bss)
    EEPROMEmulationState                     0x202001a8   Data           4  main.o(.bss.EEPROMEmulationState)
    LMOTOR                                   0x202001ac   Data           2  main.o(.bss.LMOTOR)
    RMOTOR                                   0x202001ae   Data           2  main.o(.bss.RMOTOR)
    gActiveRecordNum                         0x202001b0   Data           2  eeprom_emulation_type_a.o(.bss.gActiveRecordNum)
    gEEPROMTypeAFormatErrorFlag              0x202001b2   Data           1  eeprom_emulation_type_a.o(.bss.gEEPROMTypeAFormatErrorFlag)
    gEEPROMTypeASearchFlag                   0x202001b3   Data           1  eeprom_emulation_type_a.o(.bss.gEEPROMTypeASearchFlag)
    gMOTORBackup                             0x202001b4   Data         120  ti_msp_dl_config.o(.bss.gMOTORBackup)
    gMPUBackup                               0x2020022c   Data          40  ti_msp_dl_config.o(.bss.gMPUBackup)
    gPWM_0Backup                             0x20200254   Data         188  ti_msp_dl_config.o(.bss.gPWM_0Backup)
    gServoBackup                             0x20200310   Data         188  ti_msp_dl_config.o(.bss.gServoBackup)
    gTIMER_1msBackup                         0x202003cc   Data         120  ti_msp_dl_config.o(.bss.gTIMER_1msBackup)
    gray_read_get                            0x20200444   Data           1  main.o(.bss.gray_read_get)
    gray_status                              0x20200448   Data           4  main.o(.bss.gray_status)
    key_value                                0x2020044c   Data           1  main.o(.bss.key_value)
    left                                     0x20200450   Data          36  main.o(.bss.left)
    left_cnt                                 0x20200474   Data           4  main.o(.bss.left_cnt)
    left_speed_get                           0x20200478   Data           4  main.o(.bss.left_speed_get)
    left_speed_set                           0x2020047c   Data           4  main.o(.bss.left_speed_set)
    nowV                                     0x20200480   Data          56  main.o(.bss.nowV)
    receivingFrame                           0x202004b8   Data           1  main.o(.bss.receivingFrame)
    right                                    0x202004bc   Data          36  main.o(.bss.right)
    right_cnt                                0x202004e0   Data           4  main.o(.bss.right_cnt)
    right_speed_get                          0x202004e4   Data           4  main.o(.bss.right_speed_get)
    right_speed_set                          0x202004e8   Data           4  main.o(.bss.right_speed_set)
    sdk_choose                               0x202004ec   Data           4  main.o(.bss.sdk_choose)
    servo                                    0x202004f0   Data          36  main.o(.bss.servo)
    turn_output                              0x20200520   Data           4  main.o(.bss.turn_output)
    turn_output_last                         0x20200524   Data           4  main.o(.bss.turn_output_last)



==============================================================================

Memory Map of the image

  Image Entry point : 0x000000c1

  Load Region LR_IROM1 (Base: 0x00000000, Size: 0x000057e8, Max: 0x00020000, ABSOLUTE)

    Execution Region ER_IROM1 (Exec base: 0x00000000, Load base: 0x00000000, Size: 0x00005798, Max: 0x00020000, ABSOLUTE)

    Exec Addr    Load Addr    Size         Type   Attr      Idx    E Section Name        Object

    0x00000000   0x00000000   0x000000c0   Data   RO          348    RESET               startup_mspm0g3507_uvision.o
    0x000000c0   0x000000c0   0x00000008   Code   RO         1118  * !!!main             c_p.l(__main.o)
    0x000000c8   0x000000c8   0x00000054   Code   RO         1364    !!!scatter          c_p.l(__scatter.o)
    0x0000011c   0x0000011c   0x00000004   PAD
    0x00000120   0x00000120   0x0000001a   Code   RO         1368    !!handler_copy      c_p.l(__scatter_copy.o)
    0x0000013a   0x0000013a   0x00000006   PAD
    0x00000140   0x00000140   0x00000002   Code   RO         1365    !!handler_null      c_p.l(__scatter.o)
    0x00000142   0x00000142   0x00000006   PAD
    0x00000148   0x00000148   0x0000001c   Code   RO         1370    !!handler_zi        c_p.l(__scatter_zi.o)
    0x00000164   0x00000164   0x00000002   Code   RO         1217    .ARM.Collect$$libinit$$00000000  c_p.l(libinit.o)
    0x00000166   0x00000166   0x00000000   Code   RO         1237    .ARM.Collect$$libinit$$00000002  c_p.l(libinit2.o)
    0x00000166   0x00000166   0x00000000   Code   RO         1239    .ARM.Collect$$libinit$$00000004  c_p.l(libinit2.o)
    0x00000166   0x00000166   0x00000000   Code   RO         1241    .ARM.Collect$$libinit$$00000006  c_p.l(libinit2.o)
    0x00000166   0x00000166   0x00000000   Code   RO         1244    .ARM.Collect$$libinit$$0000000C  c_p.l(libinit2.o)
    0x00000166   0x00000166   0x00000000   Code   RO         1246    .ARM.Collect$$libinit$$0000000E  c_p.l(libinit2.o)
    0x00000166   0x00000166   0x00000000   Code   RO         1248    .ARM.Collect$$libinit$$00000010  c_p.l(libinit2.o)
    0x00000166   0x00000166   0x00000000   Code   RO         1251    .ARM.Collect$$libinit$$00000013  c_p.l(libinit2.o)
    0x00000166   0x00000166   0x00000000   Code   RO         1253    .ARM.Collect$$libinit$$00000015  c_p.l(libinit2.o)
    0x00000166   0x00000166   0x00000000   Code   RO         1255    .ARM.Collect$$libinit$$00000017  c_p.l(libinit2.o)
    0x00000166   0x00000166   0x00000000   Code   RO         1257    .ARM.Collect$$libinit$$00000019  c_p.l(libinit2.o)
    0x00000166   0x00000166   0x00000000   Code   RO         1259    .ARM.Collect$$libinit$$0000001B  c_p.l(libinit2.o)
    0x00000166   0x00000166   0x00000000   Code   RO         1261    .ARM.Collect$$libinit$$0000001D  c_p.l(libinit2.o)
    0x00000166   0x00000166   0x00000000   Code   RO         1263    .ARM.Collect$$libinit$$0000001F  c_p.l(libinit2.o)
    0x00000166   0x00000166   0x00000000   Code   RO         1265    .ARM.Collect$$libinit$$00000021  c_p.l(libinit2.o)
    0x00000166   0x00000166   0x00000000   Code   RO         1267    .ARM.Collect$$libinit$$00000023  c_p.l(libinit2.o)
    0x00000166   0x00000166   0x00000000   Code   RO         1269    .ARM.Collect$$libinit$$00000025  c_p.l(libinit2.o)
    0x00000166   0x00000166   0x00000000   Code   RO         1271    .ARM.Collect$$libinit$$00000027  c_p.l(libinit2.o)
    0x00000166   0x00000166   0x00000000   Code   RO         1275    .ARM.Collect$$libinit$$0000002E  c_p.l(libinit2.o)
    0x00000166   0x00000166   0x00000000   Code   RO         1277    .ARM.Collect$$libinit$$00000030  c_p.l(libinit2.o)
    0x00000166   0x00000166   0x00000000   Code   RO         1279    .ARM.Collect$$libinit$$00000032  c_p.l(libinit2.o)
    0x00000166   0x00000166   0x00000000   Code   RO         1281    .ARM.Collect$$libinit$$00000034  c_p.l(libinit2.o)
    0x00000166   0x00000166   0x00000002   Code   RO         1282    .ARM.Collect$$libinit$$00000035  c_p.l(libinit2.o)
    0x00000168   0x00000168   0x00000002   Code   RO         1319    .ARM.Collect$$libshutdown$$00000000  c_p.l(libshutdown.o)
    0x0000016a   0x0000016a   0x00000000   Code   RO         1347    .ARM.Collect$$libshutdown$$00000002  c_p.l(libshutdown2.o)
    0x0000016a   0x0000016a   0x00000000   Code   RO         1349    .ARM.Collect$$libshutdown$$00000004  c_p.l(libshutdown2.o)
    0x0000016a   0x0000016a   0x00000000   Code   RO         1352    .ARM.Collect$$libshutdown$$00000007  c_p.l(libshutdown2.o)
    0x0000016a   0x0000016a   0x00000000   Code   RO         1355    .ARM.Collect$$libshutdown$$0000000A  c_p.l(libshutdown2.o)
    0x0000016a   0x0000016a   0x00000000   Code   RO         1357    .ARM.Collect$$libshutdown$$0000000C  c_p.l(libshutdown2.o)
    0x0000016a   0x0000016a   0x00000000   Code   RO         1360    .ARM.Collect$$libshutdown$$0000000F  c_p.l(libshutdown2.o)
    0x0000016a   0x0000016a   0x00000002   Code   RO         1361    .ARM.Collect$$libshutdown$$00000010  c_p.l(libshutdown2.o)
    0x0000016c   0x0000016c   0x00000000   Code   RO         1168    .ARM.Collect$$rtentry$$00000000  c_p.l(__rtentry.o)
    0x0000016c   0x0000016c   0x00000000   Code   RO         1183    .ARM.Collect$$rtentry$$00000002  c_p.l(__rtentry2.o)
    0x0000016c   0x0000016c   0x00000006   Code   RO         1195    .ARM.Collect$$rtentry$$00000004  c_p.l(__rtentry4.o)
    0x00000172   0x00000172   0x00000000   Code   RO         1185    .ARM.Collect$$rtentry$$00000009  c_p.l(__rtentry2.o)
    0x00000172   0x00000172   0x00000004   Code   RO         1186    .ARM.Collect$$rtentry$$0000000A  c_p.l(__rtentry2.o)
    0x00000176   0x00000176   0x00000000   Code   RO         1188    .ARM.Collect$$rtentry$$0000000C  c_p.l(__rtentry2.o)
    0x00000176   0x00000176   0x00000008   Code   RO         1189    .ARM.Collect$$rtentry$$0000000D  c_p.l(__rtentry2.o)
    0x0000017e   0x0000017e   0x00000002   Code   RO         1228    .ARM.Collect$$rtexit$$00000000  c_p.l(rtexit.o)
    0x00000180   0x00000180   0x00000000   Code   RO         1290    .ARM.Collect$$rtexit$$00000002  c_p.l(rtexit2.o)
    0x00000180   0x00000180   0x00000004   Code   RO         1291    .ARM.Collect$$rtexit$$00000003  c_p.l(rtexit2.o)
    0x00000184   0x00000184   0x00000006   Code   RO         1292    .ARM.Collect$$rtexit$$00000004  c_p.l(rtexit2.o)
    0x0000018a   0x0000018a   0x00000002   PAD
    0x0000018c   0x0000018c   0x0000002c   Code   RO          349    .text               startup_mspm0g3507_uvision.o
    0x000001b8   0x000001b8   0x000001f8   Code   RO         1108    .text               c_p.l(aeabi_sdivfast.o)
    0x000003b0   0x000003b0   0x00000006   Code   RO         1116    .text               c_p.l(heapauxi.o)
    0x000003b6   0x000003b6   0x00000002   PAD
    0x000003b8   0x000003b8   0x0000007c   Code   RO         1120    .text               fz_ps.l(d2f.o)
    0x00000434   0x00000434   0x00000358   Code   RO         1122    .text               fz_ps.l(daddsub.o)
    0x0000078c   0x0000078c   0x00000448   Code   RO         1124    .text               fz_ps.l(ddiv.o)
    0x00000bd4   0x00000bd4   0x0000006c   Code   RO         1127    .text               fz_ps.l(dfixi.o)
    0x00000c40   0x00000c40   0x00000058   Code   RO         1129    .text               fz_ps.l(dflti.o)
    0x00000c98   0x00000c98   0x00000248   Code   RO         1131    .text               fz_ps.l(dmul.o)
    0x00000ee0   0x00000ee0   0x00000054   Code   RO         1133    .text               fz_ps.l(f2d.o)
    0x00000f34   0x00000f34   0x00000160   Code   RO         1153    .text               fz_ps.l(fdiv.o)
    0x00001094   0x00001094   0x0000004c   Code   RO         1156    .text               fz_ps.l(ffixi.o)
    0x000010e0   0x000010e0   0x00000030   Code   RO         1158    .text               fz_ps.l(ffixui.o)
    0x00001110   0x00001110   0x0000005e   Code   RO         1160    .text               fz_ps.l(fflti.o)
    0x0000116e   0x0000116e   0x00000002   PAD
    0x00001170   0x00001170   0x000000a0   Code   RO         1199    .text               fz_ps.l(dcmpin.o)
    0x00001210   0x00001210   0x00000064   Code   RO         1201    .text               fz_ps.l(fcmpin.o)
    0x00001274   0x00001274   0x0000003e   Code   RO         1203    .text               c_p.l(sys_stackheap_outer.o)
    0x000012b2   0x000012b2   0x00000010   Code   RO         1206    .text               c_p.l(exit.o)
    0x000012c2   0x000012c2   0x0000002e   Code   RO         1218    .text               fz_ps.l(cmpret.o)
    0x000012f0   0x000012f0   0x00000014   Code   RO         1220    .text               fz_ps.l(dnan2.o)
    0x00001304   0x00001304   0x00000010   Code   RO         1222    .text               fz_ps.l(fnan2.o)
    0x00001314   0x00001314   0x00000008   Code   RO         1224    .text               c_p.l(libspace.o)
    0x0000131c   0x0000131c   0x0000005e   Code   RO         1283    .text               fz_ps.l(retnan.o)
    0x0000137a   0x0000137a   0x00000002   PAD
    0x0000137c   0x0000137c   0x0000000c   Code   RO         1285    .text               c_p.l(sys_exit.o)
    0x00001388   0x00001388   0x00000002   Code   RO         1308    .text               c_p.l(use_no_semi.o)
    0x0000138a   0x0000138a   0x00000000   Code   RO         1310    .text               c_p.l(indicate_semi.o)
    0x0000138a   0x0000138a   0x0000000a   Code   RO          404    .text.DL_Common_delayCycles  dl_common.o
    0x00001394   0x00001394   0x00000014   Code   RO          460    .text.DL_FlashCTL_eraseMemoryFromRAM  dl_flashctl.o
    0x000013a8   0x000013a8   0x0000005c   Code   RO          538    .text.DL_FlashCTL_programMemoryBlockingFromRAM64WithECCGenerated  dl_flashctl.o
    0x00001404   0x00001404   0x00000020   Code   RO          500    .text.DL_FlashCTL_programMemoryFromRAM64  dl_flashctl.o
    0x00001424   0x00001424   0x00000028   Code   RO          516    .text.DL_FlashCTL_programMemoryFromRAM64WithECCGenerated  dl_flashctl.o
    0x0000144c   0x0000144c   0x000000dc   Code   RO          536    .text.DL_FlashCTL_unprotectSector  dl_flashctl.o
    0x00001528   0x00001528   0x00000044   Code   RO          859    .text.DL_SPI_init   dl_spi.o
    0x0000156c   0x0000156c   0x00000024   Code   RO          865    .text.DL_SPI_receiveDataBlocking8  dl_spi.o
    0x00001590   0x00001590   0x00000012   Code   RO          861    .text.DL_SPI_setClockConfig  dl_spi.o
    0x000015a2   0x000015a2   0x00000002   PAD
    0x000015a4   0x000015a4   0x00000024   Code   RO          871    .text.DL_SPI_transmitDataBlocking8  dl_spi.o
    0x000015c8   0x000015c8   0x000000ec   Code   RO         1075    .text.DL_SYSCTL_configSYSPLL  dl_sysctl_mspm0g1x0x_g3x0x.o
    0x000016b4   0x000016b4   0x00000050   Code   RO         1083    .text.DL_SYSCTL_switchMCLKfromSYSOSCtoHSCLK  dl_sysctl_mspm0g1x0x_g3x0x.o
    0x00001704   0x00001704   0x00000070   Code   RO          975    .text.DL_TimerA_initPWMMode  dl_timer.o
    0x00001774   0x00001774   0x000000c0   Code   RO          935    .text.DL_Timer_initPWMMode  dl_timer.o
    0x00001834   0x00001834   0x000000e8   Code   RO          917    .text.DL_Timer_initTimerMode  dl_timer.o
    0x0000191c   0x0000191c   0x0000001c   Code   RO          949    .text.DL_Timer_setCaptCompUpdateMethod  dl_timer.o
    0x00001938   0x00001938   0x00000018   Code   RO          939    .text.DL_Timer_setCaptureCompareOutCtl  dl_timer.o
    0x00001950   0x00001950   0x00000010   Code   RO          919    .text.DL_Timer_setCaptureCompareValue  dl_timer.o
    0x00001960   0x00001960   0x0000001c   Code   RO          913    .text.DL_Timer_setClockConfig  dl_timer.o
    0x0000197c   0x0000197c   0x00000048   Code   RO         1008    .text.DL_UART_init  dl_uart.o
    0x000019c4   0x000019c4   0x00000012   Code   RO         1010    .text.DL_UART_setClockConfig  dl_uart.o
    0x000019d6   0x000019d6   0x00000002   PAD
    0x000019d8   0x000019d8   0x000000fc   Code   RO          176    .text.EEPROM_TypeA_init  eeprom_emulation_type_a.o
    0x00001ad4   0x00001ad4   0x00000120   Code   RO          182    .text.EEPROM_TypeA_repairFormat  eeprom_emulation_type_a.o
    0x00001bf4   0x00001bf4   0x00000244   Code   RO          178    .text.EEPROM_TypeA_searchCheck  eeprom_emulation_type_a.o
    0x00001e38   0x00001e38   0x00000034   Code   RO           12    .text.GROUP1_IRQHandler  main.o
    0x00001e6c   0x00001e6c   0x00000204   Code   RO          126    .text.KeySCInput    keyboard.o
    0x00002070   0x00002070   0x0000001c   Code   RO          124    .text.Keyboard_init  keyboard.o
    0x0000208c   0x0000208c   0x00000234   Code   RO          233    .text.MPU6500_Calibration  mpu6500_spi.o
    0x000022c0   0x000022c0   0x000001a8   Code   RO          227    .text.MPU6500_Init  mpu6500_spi.o
    0x00002468   0x00002468   0x00000278   Code   RO          255    .text.MPU6500_getData  mpu6500_spi.o
    0x000026e0   0x000026e0   0x00000248   Code   RO          253    .text.MPU6500_getRawData  mpu6500_spi.o
    0x00002928   0x00002928   0x00000034   Code   RO          156    .text.MusicPlayer_init  musicplayer.o
    0x0000295c   0x0000295c   0x00000198   Code   RO           95    .text.OLED_Clear    oled.o
    0x00002af4   0x00002af4   0x00000078   Code   RO          109    .text.OLED_DrawBMP  oled.o
    0x00002b6c   0x00002b6c   0x0000072c   Code   RO          111    .text.OLED_Init     oled.o
    0x00003298   0x00003298   0x000000f4   Code   RO           97    .text.OLED_ShowChar  oled.o
    0x0000338c   0x0000338c   0x000000dc   Code   RO          101    .text.OLED_ShowNum  oled.o
    0x00003468   0x00003468   0x00000104   Code   RO          103    .text.OLED_ShowSignedNum  oled.o
    0x0000356c   0x0000356c   0x00000046   Code   RO          105    .text.OLED_ShowString  oled.o
    0x000035b2   0x000035b2   0x00000002   PAD
    0x000035b4   0x000035b4   0x00000098   Code   RO           87    .text.OLED_WR_Byte  oled.o
    0x0000364c   0x0000364c   0x0000006a   Code   RO          273    .text.PID_Cal_Inc   pid.o
    0x000036b6   0x000036b6   0x000000a0   Code   RO          275    .text.PID_Cal_Pos   pid.o
    0x00003756   0x00003756   0x00000002   PAD
    0x00003758   0x00003758   0x00000058   Code   RO          136    .text.PWM_init      pwm.o
    0x000037b0   0x000037b0   0x000000c8   Code   RO          295    .text.SYSCFG_DL_GPIO_init  ti_msp_dl_config.o
    0x00003878   0x00003878   0x0000009c   Code   RO          301    .text.SYSCFG_DL_MOTOR_init  ti_msp_dl_config.o
    0x00003914   0x00003914   0x0000004c   Code   RO          311    .text.SYSCFG_DL_MPU_init  ti_msp_dl_config.o
    0x00003960   0x00003960   0x0000009c   Code   RO          299    .text.SYSCFG_DL_PWM_0_init  ti_msp_dl_config.o
    0x000039fc   0x000039fc   0x0000007c   Code   RO          297    .text.SYSCFG_DL_SYSCTL_init  ti_msp_dl_config.o
    0x00003a78   0x00003a78   0x00000020   Code   RO          313    .text.SYSCFG_DL_SYSTICK_init  ti_msp_dl_config.o
    0x00003a98   0x00003a98   0x00000094   Code   RO          303    .text.SYSCFG_DL_Servo_init  ti_msp_dl_config.o
    0x00003b2c   0x00003b2c   0x00000048   Code   RO          307    .text.SYSCFG_DL_TIMER_1ms_init  ti_msp_dl_config.o
    0x00003b74   0x00003b74   0x00000048   Code   RO          305    .text.SYSCFG_DL_TIMER_5ms_init  ti_msp_dl_config.o
    0x00003bbc   0x00003bbc   0x00000090   Code   RO          309    .text.SYSCFG_DL_UART_0_init  ti_msp_dl_config.o
    0x00003c4c   0x00003c4c   0x00000060   Code   RO          291    .text.SYSCFG_DL_init  ti_msp_dl_config.o
    0x00003cac   0x00003cac   0x00000088   Code   RO          293    .text.SYSCFG_DL_initPower  ti_msp_dl_config.o
    0x00003d34   0x00003d34   0x00000024   Code   RO          138    .text.SetLeftMotor  pwm.o
    0x00003d58   0x00003d58   0x0000002c   Code   RO          140    .text.SetRightMotor  pwm.o
    0x00003d84   0x00003d84   0x0000002c   Code   RO          142    .text.SetServo      pwm.o
    0x00003db0   0x00003db0   0x00000004   Code   RO          277    .text.Set_PID       pid.o
    0x00003db4   0x00003db4   0x00000006   Code   RO          279    .text.Set_PID_Limit  pid.o
    0x00003dba   0x00003dba   0x00000002   PAD
    0x00003dbc   0x00003dbc   0x00000048   Code   RO           14    .text.TIMG0_IRQHandler  main.o
    0x00003e04   0x00003e04   0x00000160   Code   RO           16    .text.TIMG6_IRQHandler  main.o
    0x00003f64   0x00003f64   0x0000006c   Code   RO           10    .text.UART1_IRQHandler  main.o
    0x00003fd0   0x00003fd0   0x00000014   Code   RO          205    .text.UART_init     uart.o
    0x00003fe4   0x00003fe4   0x000000a4   Code   RO           40    .text.get_speed     main.o
    0x00004088   0x00004088   0x000001e4   Code   RO            2    .text.main          main.o
    0x0000426c   0x0000426c   0x000000a4   Code   RO           38    .text.sdk_run       main.o
    0x00004310   0x00004310   0x00000078   Code   RO           44    .text.set_speed     main.o
    0x00004388   0x00004388   0x00000190   Code   RO           32    .text.subtask2      main.o
    0x00004518   0x00004518   0x00000184   Code   RO           34    .text.subtask3      main.o
    0x0000469c   0x0000469c   0x000001f6   Code   RO         1109    .text_divfast       c_p.l(aeabi_sdivfast.o)
    0x00004892   0x00004892   0x00000002   PAD
    0x00004894   0x00004894   0x0000000c   Ven    RO         1372    Veneer$$Code        anon$$obj.o
    0x000048a0   0x000048a0   0x00000016   Code   RO         1143    i._fgr              fz_ps.l(fcmp.o)
    0x000048b6   0x000048b6   0x00000016   Code   RO         1145    i._fls              fz_ps.l(fcmp.o)
    0x000048cc   0x000048cc   0x000000c8   Code   RO         1165    i.floor             m_ps.l(floor.o)
    0x00004994   0x00004994   0x00000068   Code   RO         1173    x$fpl$drleqf        fz_ps.l(drlef.o)
    0x000049fc   0x000049fc   0x0000008c   Code   RO         1135    x$fpl$fadd          fz_ps.l(faddsub.o)
    0x00004a88   0x00004a88   0x00000054   Code   RO         1177    x$fpl$fgeqf         fz_ps.l(fgef.o)
    0x00004adc   0x00004adc   0x00000054   Code   RO         1179    x$fpl$fleqf         fz_ps.l(flef.o)
    0x00004b30   0x00004b30   0x000000b0   Code   RO         1162    x$fpl$fmul          fz_ps.l(fmul.o)
    0x00004be0   0x00004be0   0x000000d0   Code   RO         1137    x$fpl$fsub          fz_ps.l(faddsub.o)
    0x00004cb0   0x00004cb0   0x00000000   Code   RO         1181    x$fpl$usenofp       fz_ps.l(usenofp.o)
    0x00004cb0   0x00004cb0   0x00000080   Data   RO         1125    .constdata          fz_ps.l(ddiv.o)
    0x00004d30   0x00004d30   0x00000040   Data   RO         1154    .constdata          fz_ps.l(fdiv.o)
    0x00004d70   0x00004d70   0x000005f0   Data   RO          114    .rodata.F8X16       oled.o
    0x00005360   0x00005360   0x00000370   Data   RO           46    .rodata.Genshin     main.o
    0x000056d0   0x000056d0   0x00000003   Data   RO          327    .rodata.gMOTORClockConfig  ti_msp_dl_config.o
    0x000056d3   0x000056d3   0x00000001   PAD
    0x000056d4   0x000056d4   0x00000008   Data   RO          328    .rodata.gMOTORConfig  ti_msp_dl_config.o
    0x000056dc   0x000056dc   0x00000002   Data   RO          337    .rodata.gMPU_clockConfig  ti_msp_dl_config.o
    0x000056de   0x000056de   0x0000000a   Data   RO          338    .rodata.gMPU_config  ti_msp_dl_config.o
    0x000056e8   0x000056e8   0x00000003   Data   RO          325    .rodata.gPWM_0ClockConfig  ti_msp_dl_config.o
    0x000056eb   0x000056eb   0x00000001   PAD
    0x000056ec   0x000056ec   0x00000008   Data   RO          326    .rodata.gPWM_0Config  ti_msp_dl_config.o
    0x000056f4   0x000056f4   0x00000028   Data   RO          324    .rodata.gSYSPLLConfig  ti_msp_dl_config.o
    0x0000571c   0x0000571c   0x00000003   Data   RO          329    .rodata.gServoClockConfig  ti_msp_dl_config.o
    0x0000571f   0x0000571f   0x00000001   PAD
    0x00005720   0x00005720   0x00000008   Data   RO          330    .rodata.gServoConfig  ti_msp_dl_config.o
    0x00005728   0x00005728   0x00000003   Data   RO          333    .rodata.gTIMER_1msClockConfig  ti_msp_dl_config.o
    0x0000572b   0x0000572b   0x00000001   PAD
    0x0000572c   0x0000572c   0x00000014   Data   RO          334    .rodata.gTIMER_1msTimerConfig  ti_msp_dl_config.o
    0x00005740   0x00005740   0x00000003   Data   RO          331    .rodata.gTIMER_5msClockConfig  ti_msp_dl_config.o
    0x00005743   0x00005743   0x00000001   PAD
    0x00005744   0x00005744   0x00000014   Data   RO          332    .rodata.gTIMER_5msTimerConfig  ti_msp_dl_config.o
    0x00005758   0x00005758   0x00000002   Data   RO          335    .rodata.gUART_0ClockConfig  ti_msp_dl_config.o
    0x0000575a   0x0000575a   0x0000000a   Data   RO          336    .rodata.gUART_0Config  ti_msp_dl_config.o
    0x00005764   0x00005764   0x00000004   PAD
    0x00005768   0x00005768   0x00000030   Data   RO         1363    Region$$Table       anon$$obj.o


    Execution Region RW_IRAM2 (Exec base: 0x20200000, Load base: 0x00005798, Size: 0x00003758, Max: 0x00008000, ABSOLUTE)

    Exec Addr    Load Addr    Size         Type   Attr      Idx    E Section Name        Object

    0x20200000   0x00005798   0x00000040   Code   RO          462    .ramfunc            dl_flashctl.o
    0x20200040   0x000057d8   0x00000004   Data   RW          190    .data.gActiveRecordAddress  eeprom_emulation_type_a.o
    0x20200044   0x000057dc   0x00000002   Data   RW          193    .data.gActiveSectorNum  eeprom_emulation_type_a.o
    0x20200046   0x000057de   0x00000002   PAD
    0x20200048   0x000057e0   0x00000004   Data   RW          191    .data.gNextRecordAddress  eeprom_emulation_type_a.o
    0x2020004c   0x000057e4   0x00000004   PAD
    0x20200050        -       0x00000060   Zero   RW         1225    .bss                c_p.l(libspace.o)
    0x202000b0        -       0x000000f8   Zero   RW           67    .bss.EEPROMEmulationBuffer  main.o
    0x202001a8        -       0x00000004   Zero   RW           68    .bss.EEPROMEmulationState  main.o
    0x202001ac        -       0x00000002   Zero   RW           62    .bss.LMOTOR         main.o
    0x202001ae        -       0x00000002   Zero   RW           63    .bss.RMOTOR         main.o
    0x202001b0        -       0x00000002   Zero   RW          192    .bss.gActiveRecordNum  eeprom_emulation_type_a.o
    0x202001b2        -       0x00000001   Zero   RW          196    .bss.gEEPROMTypeAFormatErrorFlag  eeprom_emulation_type_a.o
    0x202001b3        -       0x00000001   Zero   RW          194    .bss.gEEPROMTypeASearchFlag  eeprom_emulation_type_a.o
    0x202001b4        -       0x00000078   Zero   RW          320    .bss.gMOTORBackup   ti_msp_dl_config.o
    0x2020022c        -       0x00000028   Zero   RW          323    .bss.gMPUBackup     ti_msp_dl_config.o
    0x20200254        -       0x000000bc   Zero   RW          319    .bss.gPWM_0Backup   ti_msp_dl_config.o
    0x20200310        -       0x000000bc   Zero   RW          321    .bss.gServoBackup   ti_msp_dl_config.o
    0x202003cc        -       0x00000078   Zero   RW          322    .bss.gTIMER_1msBackup  ti_msp_dl_config.o
    0x20200444        -       0x00000001   Zero   RW           52    .bss.gray_read_get  main.o
    0x20200445   0x000057e4   0x00000003   PAD
    0x20200448        -       0x00000004   Zero   RW           51    .bss.gray_status    main.o
    0x2020044c        -       0x00000001   Zero   RW           66    .bss.key_value      main.o
    0x2020044d   0x000057e4   0x00000003   PAD
    0x20200450        -       0x00000024   Zero   RW           70    .bss.left           main.o
    0x20200474        -       0x00000004   Zero   RW           58    .bss.left_cnt       main.o
    0x20200478        -       0x00000004   Zero   RW           54    .bss.left_speed_get  main.o
    0x2020047c        -       0x00000004   Zero   RW           56    .bss.left_speed_set  main.o
    0x20200480        -       0x00000038   Zero   RW           72    .bss.nowV           main.o
    0x202004b8        -       0x00000001   Zero   RW           50    .bss.receivingFrame  main.o
    0x202004b9   0x000057e4   0x00000003   PAD
    0x202004bc        -       0x00000024   Zero   RW           71    .bss.right          main.o
    0x202004e0        -       0x00000004   Zero   RW           59    .bss.right_cnt      main.o
    0x202004e4        -       0x00000004   Zero   RW           55    .bss.right_speed_get  main.o
    0x202004e8        -       0x00000004   Zero   RW           57    .bss.right_speed_set  main.o
    0x202004ec        -       0x00000004   Zero   RW           64    .bss.sdk_choose     main.o
    0x202004f0        -       0x00000024   Zero   RW           69    .bss.servo          main.o
    0x20200514        -       0x00000004   Zero   RW           73    .bss.subtask1.stage  main.o
    0x20200518        -       0x00000004   Zero   RW           74    .bss.subtask2.stage  main.o
    0x2020051c        -       0x00000004   Zero   RW           75    .bss.subtask3.stage  main.o
    0x20200520        -       0x00000004   Zero   RW           60    .bss.turn_output    main.o
    0x20200524        -       0x00000004   Zero   RW           61    .bss.turn_output_last  main.o
    0x20200528        -       0x00000008   Zero   RW          264    .bss.xAoffset       mpu6500_spi.o
    0x20200530        -       0x00000008   Zero   RW          261    .bss.xGoffset       mpu6500_spi.o
    0x20200538        -       0x00000008   Zero   RW          263    .bss.yAoffset       mpu6500_spi.o
    0x20200540        -       0x00000008   Zero   RW          260    .bss.yGoffset       mpu6500_spi.o
    0x20200548        -       0x00000008   Zero   RW          262    .bss.zAoffset       mpu6500_spi.o
    0x20200550        -       0x00000008   Zero   RW          259    .bss.zGoffset       mpu6500_spi.o
    0x20200558        -       0x00000000   Zero   RW          347    HEAP                startup_mspm0g3507_uvision.o
    0x20200558        -       0x00003200   Zero   RW          346    STACK               startup_mspm0g3507_uvision.o



  Load Region LR_BCR (Base: 0x41c00000, Size: 0x00000000, Max: 0x00000100, ABSOLUTE)

    Execution Region BCR_CONFIG (Exec base: 0x41c00000, Load base: 0x41c00000, Size: 0x00000000, Max: 0x00000080, ABSOLUTE)

    **** No section assigned to this execution region ****



  Load Region LR_BSL (Base: 0x41c00100, Size: 0x00000000, Max: 0x00000100, ABSOLUTE)

    Execution Region BSL_CONFIG (Exec base: 0x41c00100, Load base: 0x41c00100, Size: 0x00000000, Max: 0x00000080, ABSOLUTE)

    **** No section assigned to this execution region ****


==============================================================================

Image component sizes


      Code (inc. data)   RO Data    RW Data    ZI Data      Debug   Object Name

        10          0          0          0          0        647   dl_common.o
       468         24          0          0          0      50706   dl_flashctl.o
       158         12          0          0          0      15811   dl_spi.o
       316         24          0          0          0      19017   dl_sysctl_mspm0g1x0x_g3x0x.o
       632        192          0          0          0      31904   dl_timer.o
        90          8          0          0          0      14622   dl_uart.o
      1120         44          0         10          4       9786   eeprom_emulation_type_a.o
       544          8          0          0          0       7545   keyboard.o
      2304        548        880          0        475      15571   main.o
      2204        148          0          0         48      17737   mpu6500_spi.o
        52         16          0          0          0       7568   musicplayer.o
      3310         20       1520          0          0      52612   oled.o
       276          0          0          0          0       1972   pid.o
       212         32          0          0          0       7340   pwm.o
        44         18        192          0      12800        724   startup_mspm0g3507_uvision.o
      1412        272        143          0        656      40002   ti_msp_dl_config.o
        20          4          0          0          0       4815   uart.o

    ----------------------------------------------------------------------
     13194       1374       2792         12      13996     298379   Object Totals
        12          4         48          0          0          0   (incl. Generated)
        10          0          9          2         13          0   (incl. Padding)

    ----------------------------------------------------------------------

      Code (inc. data)   RO Data    RW Data    ZI Data      Debug   Library Member Name

         8          0          0          0          0         68   __main.o
         0          0          0          0          0          0   __rtentry.o
        12          0          0          0          0          0   __rtentry2.o
         6          0          0          0          0          0   __rtentry4.o
        86         10          0          0          0          0   __scatter.o
        26          0          0          0          0          0   __scatter_copy.o
        28          0          0          0          0          0   __scatter_zi.o
      1006          4          0          0          0        184   aeabi_sdivfast.o
        16          0          0          0          0         68   exit.o
         6          0          0          0          0        136   heapauxi.o
         0          0          0          0          0          0   indicate_semi.o
         2          0          0          0          0          0   libinit.o
         2          0          0          0          0          0   libinit2.o
         2          0          0          0          0          0   libshutdown.o
         2          0          0          0          0          0   libshutdown2.o
         8          4          0          0         96         68   libspace.o
         2          0          0          0          0          0   rtexit.o
        10          0          0          0          0          0   rtexit2.o
        12          4          0          0          0         60   sys_exit.o
        62          0          0          0          0         80   sys_stackheap_outer.o
         2          0          0          0          0         68   use_no_semi.o
        46          0          0          0          0         60   cmpret.o
       124          4          0          0          0         72   d2f.o
       856         20          0          0          0        208   daddsub.o
       160          6          0          0          0         76   dcmpin.o
      1096         26        128          0          0        112   ddiv.o
       108         10          0          0          0         72   dfixi.o
        88          0          0          0          0         92   dflti.o
       584         26          0          0          0         84   dmul.o
        20          6          0          0          0         68   dnan2.o
       104          4          0          0          0        104   drlef.o
        84          4          0          0          0         60   f2d.o
       348          8          0          0          0        160   faddsub.o
        44          0          0          0          0        136   fcmp.o
       100          4          0          0          0         68   fcmpin.o
       352         10         64          0          0         92   fdiv.o
        76          0          0          0          0         68   ffixi.o
        48          0          0          0          0         60   ffixui.o
        94          0          0          0          0         92   fflti.o
        84          4          0          0          0         76   fgef.o
        84          4          0          0          0         76   flef.o
       176          4          0          0          0         80   fmul.o
        16          6          0          0          0         68   fnan2.o
        94          0          0          0          0         68   retnan.o
         0          0          0          0          0          0   usenofp.o
       200         20          0          0          0         76   floor.o

    ----------------------------------------------------------------------
      6310        192        192          0         96       2860   Library Totals
        26          4          0          0          0          0   (incl. Padding)

    ----------------------------------------------------------------------

      Code (inc. data)   RO Data    RW Data    ZI Data      Debug   Library Name

      1298         22          0          0         96        732   c_p.l
      4786        146        192          0          0       2052   fz_ps.l
       200         20          0          0          0         76   m_ps.l

    ----------------------------------------------------------------------
      6310        192        192          0         96       2860   Library Totals

    ----------------------------------------------------------------------

==============================================================================


      Code (inc. data)   RO Data    RW Data    ZI Data      Debug   

     19504       1566       2984         12      14092     299619   Grand Totals
     19504       1566       2984         12      14092     299619   ELF Image Totals
     19504       1566       2984         12          0          0   ROM Totals

==============================================================================

    Total RO  Size (Code + RO Data)                22488 (  21.96kB)
    Total RW  Size (RW Data + ZI Data)             14104 (  13.77kB)
    Total ROM Size (Code + RO Data + RW Data)      22500 (  21.97kB)

==============================================================================

